
read_everything:     file format elf32-i386


Disassembly of section .init:

08048500 <.init>:
 8048500:	53                   	push   %ebx
 8048501:	83 ec 08             	sub    $0x8,%esp
 8048504:	e8 77 01 00 00       	call   8048680 <atoi@plt+0x40>
 8048509:	81 c3 f7 2a 00 00    	add    $0x2af7,%ebx
 804850f:	8b 83 fc ff ff ff    	mov    -0x4(%ebx),%eax
 8048515:	85 c0                	test   %eax,%eax
 8048517:	74 05                	je     804851e <strstr@plt-0x22>
 8048519:	e8 a2 00 00 00       	call   80485c0 <__gmon_start__@plt>
 804851e:	83 c4 08             	add    $0x8,%esp
 8048521:	5b                   	pop    %ebx
 8048522:	c3                   	ret    

Disassembly of section .plt:

08048530 <strstr@plt-0x10>:
 8048530:	ff 35 04 b0 04 08    	pushl  0x804b004
 8048536:	ff 25 08 b0 04 08    	jmp    *0x804b008
 804853c:	00 00                	add    %al,(%eax)
	...

08048540 <strstr@plt>:
 8048540:	ff 25 0c b0 04 08    	jmp    *0x804b00c
 8048546:	68 00 00 00 00       	push   $0x0
 804854b:	e9 e0 ff ff ff       	jmp    8048530 <strstr@plt-0x10>

08048550 <printf@plt>:
 8048550:	ff 25 10 b0 04 08    	jmp    *0x804b010
 8048556:	68 08 00 00 00       	push   $0x8
 804855b:	e9 d0 ff ff ff       	jmp    8048530 <strstr@plt-0x10>

08048560 <fclose@plt>:
 8048560:	ff 25 14 b0 04 08    	jmp    *0x804b014
 8048566:	68 10 00 00 00       	push   $0x10
 804856b:	e9 c0 ff ff ff       	jmp    8048530 <strstr@plt-0x10>

08048570 <signal@plt>:
 8048570:	ff 25 18 b0 04 08    	jmp    *0x804b018
 8048576:	68 18 00 00 00       	push   $0x18
 804857b:	e9 b0 ff ff ff       	jmp    8048530 <strstr@plt-0x10>

08048580 <isnan@plt>:
 8048580:	ff 25 1c b0 04 08    	jmp    *0x804b01c
 8048586:	68 20 00 00 00       	push   $0x20
 804858b:	e9 a0 ff ff ff       	jmp    8048530 <strstr@plt-0x10>

08048590 <__stack_chk_fail@plt>:
 8048590:	ff 25 20 b0 04 08    	jmp    *0x804b020
 8048596:	68 28 00 00 00       	push   $0x28
 804859b:	e9 90 ff ff ff       	jmp    8048530 <strstr@plt-0x10>

080485a0 <fread@plt>:
 80485a0:	ff 25 24 b0 04 08    	jmp    *0x804b024
 80485a6:	68 30 00 00 00       	push   $0x30
 80485ab:	e9 80 ff ff ff       	jmp    8048530 <strstr@plt-0x10>

080485b0 <puts@plt>:
 80485b0:	ff 25 28 b0 04 08    	jmp    *0x804b028
 80485b6:	68 38 00 00 00       	push   $0x38
 80485bb:	e9 70 ff ff ff       	jmp    8048530 <strstr@plt-0x10>

080485c0 <__gmon_start__@plt>:
 80485c0:	ff 25 2c b0 04 08    	jmp    *0x804b02c
 80485c6:	68 40 00 00 00       	push   $0x40
 80485cb:	e9 60 ff ff ff       	jmp    8048530 <strstr@plt-0x10>

080485d0 <exit@plt>:
 80485d0:	ff 25 30 b0 04 08    	jmp    *0x804b030
 80485d6:	68 48 00 00 00       	push   $0x48
 80485db:	e9 50 ff ff ff       	jmp    8048530 <strstr@plt-0x10>

080485e0 <strchr@plt>:
 80485e0:	ff 25 34 b0 04 08    	jmp    *0x804b034
 80485e6:	68 50 00 00 00       	push   $0x50
 80485eb:	e9 40 ff ff ff       	jmp    8048530 <strstr@plt-0x10>

080485f0 <__libc_start_main@plt>:
 80485f0:	ff 25 38 b0 04 08    	jmp    *0x804b038
 80485f6:	68 58 00 00 00       	push   $0x58
 80485fb:	e9 30 ff ff ff       	jmp    8048530 <strstr@plt-0x10>

08048600 <setvbuf@plt>:
 8048600:	ff 25 3c b0 04 08    	jmp    *0x804b03c
 8048606:	68 60 00 00 00       	push   $0x60
 804860b:	e9 20 ff ff ff       	jmp    8048530 <strstr@plt-0x10>

08048610 <fopen@plt>:
 8048610:	ff 25 40 b0 04 08    	jmp    *0x804b040
 8048616:	68 68 00 00 00       	push   $0x68
 804861b:	e9 10 ff ff ff       	jmp    8048530 <strstr@plt-0x10>

08048620 <memset@plt>:
 8048620:	ff 25 44 b0 04 08    	jmp    *0x804b044
 8048626:	68 70 00 00 00       	push   $0x70
 804862b:	e9 00 ff ff ff       	jmp    8048530 <strstr@plt-0x10>

08048630 <__isoc99_scanf@plt>:
 8048630:	ff 25 48 b0 04 08    	jmp    *0x804b048
 8048636:	68 78 00 00 00       	push   $0x78
 804863b:	e9 f0 fe ff ff       	jmp    8048530 <strstr@plt-0x10>

08048640 <atoi@plt>:
 8048640:	ff 25 4c b0 04 08    	jmp    *0x804b04c
 8048646:	68 80 00 00 00       	push   $0x80
 804864b:	e9 e0 fe ff ff       	jmp    8048530 <strstr@plt-0x10>

Disassembly of section .text:

08048650 <.text>:
 8048650:	31 ed                	xor    %ebp,%ebp
 8048652:	5e                   	pop    %esi
 8048653:	89 e1                	mov    %esp,%ecx
 8048655:	83 e4 f0             	and    $0xfffffff0,%esp
 8048658:	50                   	push   %eax
 8048659:	54                   	push   %esp
 804865a:	52                   	push   %edx
 804865b:	68 60 8c 04 08       	push   $0x8048c60
 8048660:	68 f0 8b 04 08       	push   $0x8048bf0
 8048665:	51                   	push   %ecx
 8048666:	56                   	push   %esi
 8048667:	68 fb 8a 04 08       	push   $0x8048afb
 804866c:	e8 7f ff ff ff       	call   80485f0 <__libc_start_main@plt>
 8048671:	f4                   	hlt    
 8048672:	66 90                	xchg   %ax,%ax
 8048674:	66 90                	xchg   %ax,%ax
 8048676:	66 90                	xchg   %ax,%ax
 8048678:	66 90                	xchg   %ax,%ax
 804867a:	66 90                	xchg   %ax,%ax
 804867c:	66 90                	xchg   %ax,%ax
 804867e:	66 90                	xchg   %ax,%ax
 8048680:	8b 1c 24             	mov    (%esp),%ebx
 8048683:	c3                   	ret    
 8048684:	66 90                	xchg   %ax,%ax
 8048686:	66 90                	xchg   %ax,%ax
 8048688:	66 90                	xchg   %ax,%ax
 804868a:	66 90                	xchg   %ax,%ax
 804868c:	66 90                	xchg   %ax,%ax
 804868e:	66 90                	xchg   %ax,%ax
 8048690:	b8 5b b0 04 08       	mov    $0x804b05b,%eax
 8048695:	2d 58 b0 04 08       	sub    $0x804b058,%eax
 804869a:	83 f8 06             	cmp    $0x6,%eax
 804869d:	77 01                	ja     80486a0 <atoi@plt+0x60>
 804869f:	c3                   	ret    
 80486a0:	b8 00 00 00 00       	mov    $0x0,%eax
 80486a5:	85 c0                	test   %eax,%eax
 80486a7:	74 f6                	je     804869f <atoi@plt+0x5f>
 80486a9:	55                   	push   %ebp
 80486aa:	89 e5                	mov    %esp,%ebp
 80486ac:	83 ec 18             	sub    $0x18,%esp
 80486af:	c7 04 24 58 b0 04 08 	movl   $0x804b058,(%esp)
 80486b6:	ff d0                	call   *%eax
 80486b8:	c9                   	leave  
 80486b9:	c3                   	ret    
 80486ba:	8d b6 00 00 00 00    	lea    0x0(%esi),%esi
 80486c0:	b8 58 b0 04 08       	mov    $0x804b058,%eax
 80486c5:	2d 58 b0 04 08       	sub    $0x804b058,%eax
 80486ca:	c1 f8 02             	sar    $0x2,%eax
 80486cd:	89 c2                	mov    %eax,%edx
 80486cf:	c1 ea 1f             	shr    $0x1f,%edx
 80486d2:	01 d0                	add    %edx,%eax
 80486d4:	d1 f8                	sar    %eax
 80486d6:	75 01                	jne    80486d9 <atoi@plt+0x99>
 80486d8:	c3                   	ret    
 80486d9:	ba 00 00 00 00       	mov    $0x0,%edx
 80486de:	85 d2                	test   %edx,%edx
 80486e0:	74 f6                	je     80486d8 <atoi@plt+0x98>
 80486e2:	55                   	push   %ebp
 80486e3:	89 e5                	mov    %esp,%ebp
 80486e5:	83 ec 18             	sub    $0x18,%esp
 80486e8:	89 44 24 04          	mov    %eax,0x4(%esp)
 80486ec:	c7 04 24 58 b0 04 08 	movl   $0x804b058,(%esp)
 80486f3:	ff d2                	call   *%edx
 80486f5:	c9                   	leave  
 80486f6:	c3                   	ret    
 80486f7:	89 f6                	mov    %esi,%esi
 80486f9:	8d bc 27 00 00 00 00 	lea    0x0(%edi,%eiz,1),%edi
 8048700:	80 3d 64 b0 04 08 00 	cmpb   $0x0,0x804b064
 8048707:	75 13                	jne    804871c <atoi@plt+0xdc>
 8048709:	55                   	push   %ebp
 804870a:	89 e5                	mov    %esp,%ebp
 804870c:	83 ec 08             	sub    $0x8,%esp
 804870f:	e8 7c ff ff ff       	call   8048690 <atoi@plt+0x50>
 8048714:	c6 05 64 b0 04 08 01 	movb   $0x1,0x804b064
 804871b:	c9                   	leave  
 804871c:	f3 c3                	repz ret 
 804871e:	66 90                	xchg   %ax,%ax
 8048720:	a1 10 af 04 08       	mov    0x804af10,%eax
 8048725:	85 c0                	test   %eax,%eax
 8048727:	74 1f                	je     8048748 <atoi@plt+0x108>
 8048729:	b8 00 00 00 00       	mov    $0x0,%eax
 804872e:	85 c0                	test   %eax,%eax
 8048730:	74 16                	je     8048748 <atoi@plt+0x108>
 8048732:	55                   	push   %ebp
 8048733:	89 e5                	mov    %esp,%ebp
 8048735:	83 ec 18             	sub    $0x18,%esp
 8048738:	c7 04 24 10 af 04 08 	movl   $0x804af10,(%esp)
 804873f:	ff d0                	call   *%eax
 8048741:	c9                   	leave  
 8048742:	e9 79 ff ff ff       	jmp    80486c0 <atoi@plt+0x80>
 8048747:	90                   	nop
 8048748:	e9 73 ff ff ff       	jmp    80486c0 <atoi@plt+0x80>
 804874d:	55                   	push   %ebp
 804874e:	89 e5                	mov    %esp,%ebp
 8048750:	83 ec 28             	sub    $0x28,%esp
 8048753:	8b 45 08             	mov    0x8(%ebp),%eax
 8048756:	89 45 e4             	mov    %eax,-0x1c(%ebp)
 8048759:	65 a1 14 00 00 00    	mov    %gs:0x14,%eax
 804875f:	89 45 f4             	mov    %eax,-0xc(%ebp)
 8048762:	31 c0                	xor    %eax,%eax
 8048764:	c7 04 24 80 8c 04 08 	movl   $0x8048c80,(%esp)
 804876b:	e8 40 fe ff ff       	call   80485b0 <puts@plt>
 8048770:	c7 04 24 01 00 00 00 	movl   $0x1,(%esp)
 8048777:	e8 54 fe ff ff       	call   80485d0 <exit@plt>
 804877c:	55                   	push   %ebp
 804877d:	89 e5                	mov    %esp,%ebp
 804877f:	83 ec 28             	sub    $0x28,%esp
 8048782:	65 a1 14 00 00 00    	mov    %gs:0x14,%eax
 8048788:	89 45 f4             	mov    %eax,-0xc(%ebp)
 804878b:	31 c0                	xor    %eax,%eax
 804878d:	a1 60 b0 04 08       	mov    0x804b060,%eax
 8048792:	c7 44 24 0c 00 00 00 	movl   $0x0,0xc(%esp)
 8048799:	00 
 804879a:	c7 44 24 08 02 00 00 	movl   $0x2,0x8(%esp)
 80487a1:	00 
 80487a2:	c7 44 24 04 00 00 00 	movl   $0x0,0x4(%esp)
 80487a9:	00 
 80487aa:	89 04 24             	mov    %eax,(%esp)
 80487ad:	e8 4e fe ff ff       	call   8048600 <setvbuf@plt>
 80487b2:	c7 44 24 04 4d 87 04 	movl   $0x804874d,0x4(%esp)
 80487b9:	08 
 80487ba:	c7 04 24 0e 00 00 00 	movl   $0xe,(%esp)
 80487c1:	e8 aa fd ff ff       	call   8048570 <signal@plt>
 80487c6:	c7 04 24 3c 00 00 00 	movl   $0x3c,(%esp)
 80487cd:	e8 ae fd ff ff       	call   8048580 <isnan@plt>
 80487d2:	8b 55 f4             	mov    -0xc(%ebp),%edx
 80487d5:	65 33 15 14 00 00 00 	xor    %gs:0x14,%edx
 80487dc:	74 05                	je     80487e3 <atoi@plt+0x1a3>
 80487de:	e8 ad fd ff ff       	call   8048590 <__stack_chk_fail@plt>
 80487e3:	c9                   	leave  
 80487e4:	c3                   	ret    
 80487e5:	55                   	push   %ebp
 80487e6:	89 e5                	mov    %esp,%ebp
 80487e8:	83 ec 28             	sub    $0x28,%esp
 80487eb:	65 a1 14 00 00 00    	mov    %gs:0x14,%eax
 80487f1:	89 45 f4             	mov    %eax,-0xc(%ebp)
 80487f4:	31 c0                	xor    %eax,%eax
 80487f6:	a1 80 b2 04 08       	mov    0x804b280,%eax
 80487fb:	85 c0                	test   %eax,%eax
 80487fd:	74 13                	je     8048812 <atoi@plt+0x1d2>
 80487ff:	c7 04 24 88 8c 04 08 	movl   $0x8048c88,(%esp)
 8048806:	e8 a5 fd ff ff       	call   80485b0 <puts@plt>
 804880b:	b8 00 00 00 00       	mov    $0x0,%eax
 8048810:	eb 78                	jmp    804888a <atoi@plt+0x24a>
 8048812:	c7 44 24 08 90 01 00 	movl   $0x190,0x8(%esp)
 8048819:	00 
 804881a:	c7 44 24 04 00 00 00 	movl   $0x0,0x4(%esp)
 8048821:	00 
 8048822:	c7 04 24 c0 b0 04 08 	movl   $0x804b0c0,(%esp)
 8048829:	e8 f2 fd ff ff       	call   8048620 <memset@plt>
 804882e:	c7 04 24 a9 8c 04 08 	movl   $0x8048ca9,(%esp)
 8048835:	e8 16 fd ff ff       	call   8048550 <printf@plt>
 804883a:	c7 44 24 04 80 b0 04 	movl   $0x804b080,0x4(%esp)
 8048841:	08 
 8048842:	c7 04 24 c3 8c 04 08 	movl   $0x8048cc3,(%esp)
 8048849:	e8 e2 fd ff ff       	call   8048630 <__isoc99_scanf@plt>
 804884e:	c7 44 24 04 c8 8c 04 	movl   $0x8048cc8,0x4(%esp)
 8048855:	08 
 8048856:	c7 04 24 80 b0 04 08 	movl   $0x804b080,(%esp)
 804885d:	e8 ae fd ff ff       	call   8048610 <fopen@plt>
 8048862:	a3 80 b2 04 08       	mov    %eax,0x804b280
 8048867:	a1 80 b2 04 08       	mov    0x804b280,%eax
 804886c:	85 c0                	test   %eax,%eax
 804886e:	75 0e                	jne    804887e <atoi@plt+0x23e>
 8048870:	c7 04 24 ca 8c 04 08 	movl   $0x8048cca,(%esp)
 8048877:	e8 34 fd ff ff       	call   80485b0 <puts@plt>
 804887c:	eb 0c                	jmp    804888a <atoi@plt+0x24a>
 804887e:	c7 04 24 d6 8c 04 08 	movl   $0x8048cd6,(%esp)
 8048885:	e8 26 fd ff ff       	call   80485b0 <puts@plt>
 804888a:	8b 55 f4             	mov    -0xc(%ebp),%edx
 804888d:	65 33 15 14 00 00 00 	xor    %gs:0x14,%edx
 8048894:	74 05                	je     804889b <atoi@plt+0x25b>
 8048896:	e8 f5 fc ff ff       	call   8048590 <__stack_chk_fail@plt>
 804889b:	c9                   	leave  
 804889c:	c3                   	ret    
 804889d:	55                   	push   %ebp
 804889e:	89 e5                	mov    %esp,%ebp
 80488a0:	83 ec 28             	sub    $0x28,%esp
 80488a3:	65 a1 14 00 00 00    	mov    %gs:0x14,%eax
 80488a9:	89 45 f4             	mov    %eax,-0xc(%ebp)
 80488ac:	31 c0                	xor    %eax,%eax
 80488ae:	c7 45 f0 00 00 00 00 	movl   $0x0,-0x10(%ebp)
 80488b5:	c7 44 24 08 90 01 00 	movl   $0x190,0x8(%esp)
 80488bc:	00 
 80488bd:	c7 44 24 04 00 00 00 	movl   $0x0,0x4(%esp)
 80488c4:	00 
 80488c5:	c7 04 24 c0 b0 04 08 	movl   $0x804b0c0,(%esp)
 80488cc:	e8 4f fd ff ff       	call   8048620 <memset@plt>
 80488d1:	a1 80 b2 04 08       	mov    0x804b280,%eax
 80488d6:	85 c0                	test   %eax,%eax
 80488d8:	74 3c                	je     8048916 <atoi@plt+0x2d6>
 80488da:	a1 80 b2 04 08       	mov    0x804b280,%eax
 80488df:	89 44 24 0c          	mov    %eax,0xc(%esp)
 80488e3:	c7 44 24 08 01 00 00 	movl   $0x1,0x8(%esp)
 80488ea:	00 
 80488eb:	c7 44 24 04 8f 01 00 	movl   $0x18f,0x4(%esp)
 80488f2:	00 
 80488f3:	c7 04 24 c0 b0 04 08 	movl   $0x804b0c0,(%esp)
 80488fa:	e8 a1 fc ff ff       	call   80485a0 <fread@plt>
 80488ff:	89 45 f0             	mov    %eax,-0x10(%ebp)
 8048902:	83 7d f0 00          	cmpl   $0x0,-0x10(%ebp)
 8048906:	74 1a                	je     8048922 <atoi@plt+0x2e2>
 8048908:	c7 04 24 e6 8c 04 08 	movl   $0x8048ce6,(%esp)
 804890f:	e8 9c fc ff ff       	call   80485b0 <puts@plt>
 8048914:	eb 0c                	jmp    8048922 <atoi@plt+0x2e2>
 8048916:	c7 04 24 f6 8c 04 08 	movl   $0x8048cf6,(%esp)
 804891d:	e8 8e fc ff ff       	call   80485b0 <puts@plt>
 8048922:	8b 45 f4             	mov    -0xc(%ebp),%eax
 8048925:	65 33 05 14 00 00 00 	xor    %gs:0x14,%eax
 804892c:	74 05                	je     8048933 <atoi@plt+0x2f3>
 804892e:	e8 5d fc ff ff       	call   8048590 <__stack_chk_fail@plt>
 8048933:	c9                   	leave  
 8048934:	c3                   	ret    
 8048935:	55                   	push   %ebp
 8048936:	89 e5                	mov    %esp,%ebp
 8048938:	83 ec 28             	sub    $0x28,%esp
 804893b:	65 a1 14 00 00 00    	mov    %gs:0x14,%eax
 8048941:	89 45 f4             	mov    %eax,-0xc(%ebp)
 8048944:	31 c0                	xor    %eax,%eax
 8048946:	c7 44 24 04 14 8d 04 	movl   $0x8048d14,0x4(%esp)
 804894d:	08 
 804894e:	c7 04 24 80 b0 04 08 	movl   $0x804b080,(%esp)
 8048955:	e8 e6 fb ff ff       	call   8048540 <strstr@plt>
 804895a:	85 c0                	test   %eax,%eax
 804895c:	75 30                	jne    804898e <atoi@plt+0x34e>
 804895e:	c7 44 24 04 19 8d 04 	movl   $0x8048d19,0x4(%esp)
 8048965:	08 
 8048966:	c7 04 24 c0 b0 04 08 	movl   $0x804b0c0,(%esp)
 804896d:	e8 ce fb ff ff       	call   8048540 <strstr@plt>
 8048972:	85 c0                	test   %eax,%eax
 8048974:	75 18                	jne    804898e <atoi@plt+0x34e>
 8048976:	c7 44 24 04 7d 00 00 	movl   $0x7d,0x4(%esp)
 804897d:	00 
 804897e:	c7 04 24 c0 b0 04 08 	movl   $0x804b0c0,(%esp)
 8048985:	e8 56 fc ff ff       	call   80485e0 <strchr@plt>
 804898a:	85 c0                	test   %eax,%eax
 804898c:	74 18                	je     80489a6 <atoi@plt+0x366>
 804898e:	c7 04 24 1d 8d 04 08 	movl   $0x8048d1d,(%esp)
 8048995:	e8 16 fc ff ff       	call   80485b0 <puts@plt>
 804899a:	c7 04 24 01 00 00 00 	movl   $0x1,(%esp)
 80489a1:	e8 2a fc ff ff       	call   80485d0 <exit@plt>
 80489a6:	c7 04 24 c0 b0 04 08 	movl   $0x804b0c0,(%esp)
 80489ad:	e8 fe fb ff ff       	call   80485b0 <puts@plt>
 80489b2:	8b 45 f4             	mov    -0xc(%ebp),%eax
 80489b5:	65 33 05 14 00 00 00 	xor    %gs:0x14,%eax
 80489bc:	74 05                	je     80489c3 <atoi@plt+0x383>
 80489be:	e8 cd fb ff ff       	call   8048590 <__stack_chk_fail@plt>
 80489c3:	c9                   	leave  
 80489c4:	c3                   	ret    
 80489c5:	55                   	push   %ebp
 80489c6:	89 e5                	mov    %esp,%ebp
 80489c8:	83 ec 28             	sub    $0x28,%esp
 80489cb:	65 a1 14 00 00 00    	mov    %gs:0x14,%eax
 80489d1:	89 45 f4             	mov    %eax,-0xc(%ebp)
 80489d4:	31 c0                	xor    %eax,%eax
 80489d6:	a1 80 b2 04 08       	mov    0x804b280,%eax
 80489db:	85 c0                	test   %eax,%eax
 80489dd:	74 0f                	je     80489ee <atoi@plt+0x3ae>
 80489df:	a1 80 b2 04 08       	mov    0x804b280,%eax
 80489e4:	89 04 24             	mov    %eax,(%esp)
 80489e7:	e8 74 fb ff ff       	call   8048560 <fclose@plt>
 80489ec:	eb 0c                	jmp    80489fa <atoi@plt+0x3ba>
 80489ee:	c7 04 24 2e 8d 04 08 	movl   $0x8048d2e,(%esp)
 80489f5:	e8 b6 fb ff ff       	call   80485b0 <puts@plt>
 80489fa:	c7 05 80 b2 04 08 00 	movl   $0x0,0x804b280
 8048a01:	00 00 00 
 8048a04:	8b 45 f4             	mov    -0xc(%ebp),%eax
 8048a07:	65 33 05 14 00 00 00 	xor    %gs:0x14,%eax
 8048a0e:	74 05                	je     8048a15 <atoi@plt+0x3d5>
 8048a10:	e8 7b fb ff ff       	call   8048590 <__stack_chk_fail@plt>
 8048a15:	c9                   	leave  
 8048a16:	c3                   	ret    
 8048a17:	55                   	push   %ebp
 8048a18:	89 e5                	mov    %esp,%ebp
 8048a1a:	83 ec 28             	sub    $0x28,%esp
 8048a1d:	65 a1 14 00 00 00    	mov    %gs:0x14,%eax
 8048a23:	89 45 f4             	mov    %eax,-0xc(%ebp)
 8048a26:	31 c0                	xor    %eax,%eax
 8048a28:	c7 04 24 44 8d 04 08 	movl   $0x8048d44,(%esp)
 8048a2f:	e8 7c fb ff ff       	call   80485b0 <puts@plt>
 8048a34:	c7 04 24 7c 8d 04 08 	movl   $0x8048d7c,(%esp)
 8048a3b:	e8 70 fb ff ff       	call   80485b0 <puts@plt>
 8048a40:	c7 04 24 b4 8d 04 08 	movl   $0x8048db4,(%esp)
 8048a47:	e8 64 fb ff ff       	call   80485b0 <puts@plt>
 8048a4c:	c7 04 24 d9 8d 04 08 	movl   $0x8048dd9,(%esp)
 8048a53:	e8 58 fb ff ff       	call   80485b0 <puts@plt>
 8048a58:	c7 04 24 44 8d 04 08 	movl   $0x8048d44,(%esp)
 8048a5f:	e8 4c fb ff ff       	call   80485b0 <puts@plt>
 8048a64:	8b 45 f4             	mov    -0xc(%ebp),%eax
 8048a67:	65 33 05 14 00 00 00 	xor    %gs:0x14,%eax
 8048a6e:	74 05                	je     8048a75 <atoi@plt+0x435>
 8048a70:	e8 1b fb ff ff       	call   8048590 <__stack_chk_fail@plt>
 8048a75:	c9                   	leave  
 8048a76:	c3                   	ret    
 8048a77:	55                   	push   %ebp
 8048a78:	89 e5                	mov    %esp,%ebp
 8048a7a:	83 ec 28             	sub    $0x28,%esp
 8048a7d:	65 a1 14 00 00 00    	mov    %gs:0x14,%eax
 8048a83:	89 45 f4             	mov    %eax,-0xc(%ebp)
 8048a86:	31 c0                	xor    %eax,%eax
 8048a88:	c7 04 24 f8 8d 04 08 	movl   $0x8048df8,(%esp)
 8048a8f:	e8 1c fb ff ff       	call   80485b0 <puts@plt>
 8048a94:	c7 04 24 1b 8e 04 08 	movl   $0x8048e1b,(%esp)
 8048a9b:	e8 10 fb ff ff       	call   80485b0 <puts@plt>
 8048aa0:	c7 04 24 25 8e 04 08 	movl   $0x8048e25,(%esp)
 8048aa7:	e8 04 fb ff ff       	call   80485b0 <puts@plt>
 8048aac:	c7 04 24 2f 8e 04 08 	movl   $0x8048e2f,(%esp)
 8048ab3:	e8 f8 fa ff ff       	call   80485b0 <puts@plt>
 8048ab8:	c7 04 24 44 8e 04 08 	movl   $0x8048e44,(%esp)
 8048abf:	e8 ec fa ff ff       	call   80485b0 <puts@plt>
 8048ac4:	c7 04 24 4f 8e 04 08 	movl   $0x8048e4f,(%esp)
 8048acb:	e8 e0 fa ff ff       	call   80485b0 <puts@plt>
 8048ad0:	c7 04 24 5c 8e 04 08 	movl   $0x8048e5c,(%esp)
 8048ad7:	e8 d4 fa ff ff       	call   80485b0 <puts@plt>
 8048adc:	c7 04 24 7f 8e 04 08 	movl   $0x8048e7f,(%esp)
 8048ae3:	e8 68 fa ff ff       	call   8048550 <printf@plt>
 8048ae8:	8b 45 f4             	mov    -0xc(%ebp),%eax
 8048aeb:	65 33 05 14 00 00 00 	xor    %gs:0x14,%eax
 8048af2:	74 05                	je     8048af9 <atoi@plt+0x4b9>
 8048af4:	e8 97 fa ff ff       	call   8048590 <__stack_chk_fail@plt>
 8048af9:	c9                   	leave  
 8048afa:	c3                   	ret    
 8048afb:	55                   	push   %ebp
 8048afc:	89 e5                	mov    %esp,%ebp
 8048afe:	83 e4 f0             	and    $0xfffffff0,%esp
 8048b01:	83 ec 40             	sub    $0x40,%esp
 8048b04:	65 a1 14 00 00 00    	mov    %gs:0x14,%eax
 8048b0a:	89 44 24 3c          	mov    %eax,0x3c(%esp)
 8048b0e:	31 c0                	xor    %eax,%eax
 8048b10:	e8 67 fc ff ff       	call   804877c <atoi@plt+0x13c>
 8048b15:	e8 fd fe ff ff       	call   8048a17 <atoi@plt+0x3d7>
 8048b1a:	e8 58 ff ff ff       	call   8048a77 <atoi@plt+0x437>
 8048b1f:	8d 44 24 1c          	lea    0x1c(%esp),%eax
 8048b23:	89 44 24 04          	mov    %eax,0x4(%esp)
 8048b27:	c7 04 24 8d 8e 04 08 	movl   $0x8048e8d,(%esp)
 8048b2e:	e8 fd fa ff ff       	call   8048630 <__isoc99_scanf@plt>
 8048b33:	8d 44 24 1c          	lea    0x1c(%esp),%eax
 8048b37:	89 04 24             	mov    %eax,(%esp)
 8048b3a:	e8 01 fb ff ff       	call   8048640 <atoi@plt>
 8048b3f:	89 44 24 18          	mov    %eax,0x18(%esp)
 8048b43:	83 7c 24 18 05       	cmpl   $0x5,0x18(%esp)
 8048b48:	0f 87 85 00 00 00    	ja     8048bd3 <atoi@plt+0x593>
 8048b4e:	8b 44 24 18          	mov    0x18(%esp),%eax
 8048b52:	c1 e0 02             	shl    $0x2,%eax
 8048b55:	05 d4 8e 04 08       	add    $0x8048ed4,%eax
 8048b5a:	8b 00                	mov    (%eax),%eax
 8048b5c:	ff e0                	jmp    *%eax
 8048b5e:	e8 82 fc ff ff       	call   80487e5 <atoi@plt+0x1a5>
 8048b63:	e9 83 00 00 00       	jmp    8048beb <atoi@plt+0x5ab>
 8048b68:	e8 30 fd ff ff       	call   804889d <atoi@plt+0x25d>
 8048b6d:	eb 7c                	jmp    8048beb <atoi@plt+0x5ab>
 8048b6f:	e8 c1 fd ff ff       	call   8048935 <atoi@plt+0x2f5>
 8048b74:	eb 75                	jmp    8048beb <atoi@plt+0x5ab>
 8048b76:	e8 4a fe ff ff       	call   80489c5 <atoi@plt+0x385>
 8048b7b:	eb 6e                	jmp    8048beb <atoi@plt+0x5ab>
 8048b7d:	c7 04 24 90 8e 04 08 	movl   $0x8048e90,(%esp)
 8048b84:	e8 c7 f9 ff ff       	call   8048550 <printf@plt>
 8048b89:	c7 44 24 04 60 b2 04 	movl   $0x804b260,0x4(%esp)
 8048b90:	08 
 8048b91:	c7 04 24 8d 8e 04 08 	movl   $0x8048e8d,(%esp)
 8048b98:	e8 93 fa ff ff       	call   8048630 <__isoc99_scanf@plt>
 8048b9d:	c7 44 24 04 60 b2 04 	movl   $0x804b260,0x4(%esp)
 8048ba4:	08 
 8048ba5:	c7 04 24 a4 8e 04 08 	movl   $0x8048ea4,(%esp)
 8048bac:	e8 9f f9 ff ff       	call   8048550 <printf@plt>
 8048bb1:	a1 80 b2 04 08       	mov    0x804b280,%eax
 8048bb6:	85 c0                	test   %eax,%eax
 8048bb8:	74 0d                	je     8048bc7 <atoi@plt+0x587>
 8048bba:	a1 80 b2 04 08       	mov    0x804b280,%eax
 8048bbf:	89 04 24             	mov    %eax,(%esp)
 8048bc2:	e8 99 f9 ff ff       	call   8048560 <fclose@plt>
 8048bc7:	c7 04 24 00 00 00 00 	movl   $0x0,(%esp)
 8048bce:	e8 fd f9 ff ff       	call   80485d0 <exit@plt>
 8048bd3:	c7 04 24 c5 8e 04 08 	movl   $0x8048ec5,(%esp)
 8048bda:	e8 d1 f9 ff ff       	call   80485b0 <puts@plt>
 8048bdf:	c7 04 24 00 00 00 00 	movl   $0x0,(%esp)
 8048be6:	e8 e5 f9 ff ff       	call   80485d0 <exit@plt>
 8048beb:	e9 2a ff ff ff       	jmp    8048b1a <atoi@plt+0x4da>
 8048bf0:	55                   	push   %ebp
 8048bf1:	57                   	push   %edi
 8048bf2:	31 ff                	xor    %edi,%edi
 8048bf4:	56                   	push   %esi
 8048bf5:	53                   	push   %ebx
 8048bf6:	e8 85 fa ff ff       	call   8048680 <atoi@plt+0x40>
 8048bfb:	81 c3 05 24 00 00    	add    $0x2405,%ebx
 8048c01:	83 ec 1c             	sub    $0x1c,%esp
 8048c04:	8b 6c 24 30          	mov    0x30(%esp),%ebp
 8048c08:	8d b3 0c ff ff ff    	lea    -0xf4(%ebx),%esi
 8048c0e:	e8 ed f8 ff ff       	call   8048500 <strstr@plt-0x40>
 8048c13:	8d 83 08 ff ff ff    	lea    -0xf8(%ebx),%eax
 8048c19:	29 c6                	sub    %eax,%esi
 8048c1b:	c1 fe 02             	sar    $0x2,%esi
 8048c1e:	85 f6                	test   %esi,%esi
 8048c20:	74 27                	je     8048c49 <atoi@plt+0x609>
 8048c22:	8d b6 00 00 00 00    	lea    0x0(%esi),%esi
 8048c28:	8b 44 24 38          	mov    0x38(%esp),%eax
 8048c2c:	89 2c 24             	mov    %ebp,(%esp)
 8048c2f:	89 44 24 08          	mov    %eax,0x8(%esp)
 8048c33:	8b 44 24 34          	mov    0x34(%esp),%eax
 8048c37:	89 44 24 04          	mov    %eax,0x4(%esp)
 8048c3b:	ff 94 bb 08 ff ff ff 	call   *-0xf8(%ebx,%edi,4)
 8048c42:	83 c7 01             	add    $0x1,%edi
 8048c45:	39 f7                	cmp    %esi,%edi
 8048c47:	75 df                	jne    8048c28 <atoi@plt+0x5e8>
 8048c49:	83 c4 1c             	add    $0x1c,%esp
 8048c4c:	5b                   	pop    %ebx
 8048c4d:	5e                   	pop    %esi
 8048c4e:	5f                   	pop    %edi
 8048c4f:	5d                   	pop    %ebp
 8048c50:	c3                   	ret    
 8048c51:	eb 0d                	jmp    8048c60 <atoi@plt+0x620>
 8048c53:	90                   	nop
 8048c54:	90                   	nop
 8048c55:	90                   	nop
 8048c56:	90                   	nop
 8048c57:	90                   	nop
 8048c58:	90                   	nop
 8048c59:	90                   	nop
 8048c5a:	90                   	nop
 8048c5b:	90                   	nop
 8048c5c:	90                   	nop
 8048c5d:	90                   	nop
 8048c5e:	90                   	nop
 8048c5f:	90                   	nop
 8048c60:	f3 c3                	repz ret 

Disassembly of section .fini:

08048c64 <.fini>:
 8048c64:	53                   	push   %ebx
 8048c65:	83 ec 08             	sub    $0x8,%esp
 8048c68:	e8 13 fa ff ff       	call   8048680 <atoi@plt+0x40>
 8048c6d:	81 c3 93 23 00 00    	add    $0x2393,%ebx
 8048c73:	83 c4 08             	add    $0x8,%esp
 8048c76:	5b                   	pop    %ebx
 8048c77:	c3                   	ret    
