
bofeasy:     file format elf32-i386


Disassembly of section .init:

08048358 <_init>:
 8048358:	53                   	push   %ebx
 8048359:	83 ec 08             	sub    $0x8,%esp
 804835c:	e8 cf 00 00 00       	call   8048430 <__x86.get_pc_thunk.bx>
 8048361:	81 c3 9f 1c 00 00    	add    $0x1c9f,%ebx
 8048367:	8b 83 fc ff ff ff    	mov    -0x4(%ebx),%eax
 804836d:	85 c0                	test   %eax,%eax
 804836f:	74 05                	je     8048376 <_init+0x1e>
 8048371:	e8 6a 00 00 00       	call   80483e0 <__gmon_start__@plt>
 8048376:	83 c4 08             	add    $0x8,%esp
 8048379:	5b                   	pop    %ebx
 804837a:	c3                   	ret    

Disassembly of section .plt:

08048380 <read@plt-0x10>:
 8048380:	ff 35 04 a0 04 08    	pushl  0x804a004
 8048386:	ff 25 08 a0 04 08    	jmp    *0x804a008
 804838c:	00 00                	add    %al,(%eax)
	...

08048390 <read@plt>:
 8048390:	ff 25 0c a0 04 08    	jmp    *0x804a00c
 8048396:	68 00 00 00 00       	push   $0x0
 804839b:	e9 e0 ff ff ff       	jmp    8048380 <_init+0x28>

080483a0 <printf@plt>:
 80483a0:	ff 25 10 a0 04 08    	jmp    *0x804a010
 80483a6:	68 08 00 00 00       	push   $0x8
 80483ab:	e9 d0 ff ff ff       	jmp    8048380 <_init+0x28>

080483b0 <fflush@plt>:
 80483b0:	ff 25 14 a0 04 08    	jmp    *0x804a014
 80483b6:	68 10 00 00 00       	push   $0x10
 80483bb:	e9 c0 ff ff ff       	jmp    8048380 <_init+0x28>

080483c0 <puts@plt>:
 80483c0:	ff 25 18 a0 04 08    	jmp    *0x804a018
 80483c6:	68 18 00 00 00       	push   $0x18
 80483cb:	e9 b0 ff ff ff       	jmp    8048380 <_init+0x28>

080483d0 <system@plt>:
 80483d0:	ff 25 1c a0 04 08    	jmp    *0x804a01c
 80483d6:	68 20 00 00 00       	push   $0x20
 80483db:	e9 a0 ff ff ff       	jmp    8048380 <_init+0x28>

080483e0 <__gmon_start__@plt>:
 80483e0:	ff 25 20 a0 04 08    	jmp    *0x804a020
 80483e6:	68 28 00 00 00       	push   $0x28
 80483eb:	e9 90 ff ff ff       	jmp    8048380 <_init+0x28>

080483f0 <__libc_start_main@plt>:
 80483f0:	ff 25 24 a0 04 08    	jmp    *0x804a024
 80483f6:	68 30 00 00 00       	push   $0x30
 80483fb:	e9 80 ff ff ff       	jmp    8048380 <_init+0x28>

Disassembly of section .text:

08048400 <_start>:
 8048400:	31 ed                	xor    %ebp,%ebp
 8048402:	5e                   	pop    %esi
 8048403:	89 e1                	mov    %esp,%ecx
 8048405:	83 e4 f0             	and    $0xfffffff0,%esp
 8048408:	50                   	push   %eax
 8048409:	54                   	push   %esp
 804840a:	52                   	push   %edx
 804840b:	68 e0 85 04 08       	push   $0x80485e0
 8048410:	68 70 85 04 08       	push   $0x8048570
 8048415:	51                   	push   %ecx
 8048416:	56                   	push   %esi
 8048417:	68 1d 85 04 08       	push   $0x804851d
 804841c:	e8 cf ff ff ff       	call   80483f0 <__libc_start_main@plt>
 8048421:	f4                   	hlt    
 8048422:	66 90                	xchg   %ax,%ax
 8048424:	66 90                	xchg   %ax,%ax
 8048426:	66 90                	xchg   %ax,%ax
 8048428:	66 90                	xchg   %ax,%ax
 804842a:	66 90                	xchg   %ax,%ax
 804842c:	66 90                	xchg   %ax,%ax
 804842e:	66 90                	xchg   %ax,%ax

08048430 <__x86.get_pc_thunk.bx>:
 8048430:	8b 1c 24             	mov    (%esp),%ebx
 8048433:	c3                   	ret    
 8048434:	66 90                	xchg   %ax,%ax
 8048436:	66 90                	xchg   %ax,%ax
 8048438:	66 90                	xchg   %ax,%ax
 804843a:	66 90                	xchg   %ax,%ax
 804843c:	66 90                	xchg   %ax,%ax
 804843e:	66 90                	xchg   %ax,%ax

08048440 <deregister_tm_clones>:
 8048440:	b8 33 a0 04 08       	mov    $0x804a033,%eax
 8048445:	2d 30 a0 04 08       	sub    $0x804a030,%eax
 804844a:	83 f8 06             	cmp    $0x6,%eax
 804844d:	77 01                	ja     8048450 <deregister_tm_clones+0x10>
 804844f:	c3                   	ret    
 8048450:	b8 00 00 00 00       	mov    $0x0,%eax
 8048455:	85 c0                	test   %eax,%eax
 8048457:	74 f6                	je     804844f <deregister_tm_clones+0xf>
 8048459:	55                   	push   %ebp
 804845a:	89 e5                	mov    %esp,%ebp
 804845c:	83 ec 18             	sub    $0x18,%esp
 804845f:	c7 04 24 30 a0 04 08 	movl   $0x804a030,(%esp)
 8048466:	ff d0                	call   *%eax
 8048468:	c9                   	leave  
 8048469:	c3                   	ret    
 804846a:	8d b6 00 00 00 00    	lea    0x0(%esi),%esi

08048470 <register_tm_clones>:
 8048470:	b8 30 a0 04 08       	mov    $0x804a030,%eax
 8048475:	2d 30 a0 04 08       	sub    $0x804a030,%eax
 804847a:	c1 f8 02             	sar    $0x2,%eax
 804847d:	89 c2                	mov    %eax,%edx
 804847f:	c1 ea 1f             	shr    $0x1f,%edx
 8048482:	01 d0                	add    %edx,%eax
 8048484:	d1 f8                	sar    %eax
 8048486:	75 01                	jne    8048489 <register_tm_clones+0x19>
 8048488:	c3                   	ret    
 8048489:	ba 00 00 00 00       	mov    $0x0,%edx
 804848e:	85 d2                	test   %edx,%edx
 8048490:	74 f6                	je     8048488 <register_tm_clones+0x18>
 8048492:	55                   	push   %ebp
 8048493:	89 e5                	mov    %esp,%ebp
 8048495:	83 ec 18             	sub    $0x18,%esp
 8048498:	89 44 24 04          	mov    %eax,0x4(%esp)
 804849c:	c7 04 24 30 a0 04 08 	movl   $0x804a030,(%esp)
 80484a3:	ff d2                	call   *%edx
 80484a5:	c9                   	leave  
 80484a6:	c3                   	ret    
 80484a7:	89 f6                	mov    %esi,%esi
 80484a9:	8d bc 27 00 00 00 00 	lea    0x0(%edi,%eiz,1),%edi

080484b0 <__do_global_dtors_aux>:
 80484b0:	80 3d 44 a0 04 08 00 	cmpb   $0x0,0x804a044
 80484b7:	75 13                	jne    80484cc <__do_global_dtors_aux+0x1c>
 80484b9:	55                   	push   %ebp
 80484ba:	89 e5                	mov    %esp,%ebp
 80484bc:	83 ec 08             	sub    $0x8,%esp
 80484bf:	e8 7c ff ff ff       	call   8048440 <deregister_tm_clones>
 80484c4:	c6 05 44 a0 04 08 01 	movb   $0x1,0x804a044
 80484cb:	c9                   	leave  
 80484cc:	f3 c3                	repz ret 
 80484ce:	66 90                	xchg   %ax,%ax

080484d0 <frame_dummy>:
 80484d0:	a1 10 9f 04 08       	mov    0x8049f10,%eax
 80484d5:	85 c0                	test   %eax,%eax
 80484d7:	74 1f                	je     80484f8 <frame_dummy+0x28>
 80484d9:	b8 00 00 00 00       	mov    $0x0,%eax
 80484de:	85 c0                	test   %eax,%eax
 80484e0:	74 16                	je     80484f8 <frame_dummy+0x28>
 80484e2:	55                   	push   %ebp
 80484e3:	89 e5                	mov    %esp,%ebp
 80484e5:	83 ec 18             	sub    $0x18,%esp
 80484e8:	c7 04 24 10 9f 04 08 	movl   $0x8049f10,(%esp)
 80484ef:	ff d0                	call   *%eax
 80484f1:	c9                   	leave  
 80484f2:	e9 79 ff ff ff       	jmp    8048470 <register_tm_clones>
 80484f7:	90                   	nop
 80484f8:	e9 73 ff ff ff       	jmp    8048470 <register_tm_clones>

080484fd <l33t>:
 80484fd:	55                   	push   %ebp
 80484fe:	89 e5                	mov    %esp,%ebp
 8048500:	83 ec 18             	sub    $0x18,%esp
 8048503:	c7 04 24 00 86 04 08 	movl   $0x8048600,(%esp)
 804850a:	e8 b1 fe ff ff       	call   80483c0 <puts@plt>
 804850f:	c7 04 24 0b 86 04 08 	movl   $0x804860b,(%esp)
 8048516:	e8 b5 fe ff ff       	call   80483d0 <system@plt>
 804851b:	c9                   	leave  
 804851c:	c3                   	ret    

0804851d <main>:
 804851d:	55                   	push   %ebp
 804851e:	89 e5                	mov    %esp,%ebp
 8048520:	83 e4 f0             	and    $0xfffffff0,%esp
 8048523:	83 ec 30             	sub    $0x30,%esp
 8048526:	c7 04 24 13 86 04 08 	movl   $0x8048613,(%esp)
 804852d:	e8 8e fe ff ff       	call   80483c0 <puts@plt>
 8048532:	c7 04 24 2b 86 04 08 	movl   $0x804862b,(%esp)
 8048539:	e8 62 fe ff ff       	call   80483a0 <printf@plt>
 804853e:	a1 40 a0 04 08       	mov    0x804a040,%eax
 8048543:	89 04 24             	mov    %eax,(%esp)
 8048546:	e8 65 fe ff ff       	call   80483b0 <fflush@plt>
 804854b:	c7 44 24 08 64 00 00 	movl   $0x64,0x8(%esp)
 8048552:	00 
 8048553:	8d 44 24 1c          	lea    0x1c(%esp),%eax
 8048557:	89 44 24 04          	mov    %eax,0x4(%esp)
 804855b:	c7 04 24 00 00 00 00 	movl   $0x0,(%esp)
 8048562:	e8 29 fe ff ff       	call   8048390 <read@plt>
 8048567:	b8 00 00 00 00       	mov    $0x0,%eax
 804856c:	c9                   	leave  
 804856d:	c3                   	ret    
 804856e:	66 90                	xchg   %ax,%ax

08048570 <__libc_csu_init>:
 8048570:	55                   	push   %ebp
 8048571:	57                   	push   %edi
 8048572:	31 ff                	xor    %edi,%edi
 8048574:	56                   	push   %esi
 8048575:	53                   	push   %ebx
 8048576:	e8 b5 fe ff ff       	call   8048430 <__x86.get_pc_thunk.bx>
 804857b:	81 c3 85 1a 00 00    	add    $0x1a85,%ebx
 8048581:	83 ec 1c             	sub    $0x1c,%esp
 8048584:	8b 6c 24 30          	mov    0x30(%esp),%ebp
 8048588:	8d b3 0c ff ff ff    	lea    -0xf4(%ebx),%esi
 804858e:	e8 c5 fd ff ff       	call   8048358 <_init>
 8048593:	8d 83 08 ff ff ff    	lea    -0xf8(%ebx),%eax
 8048599:	29 c6                	sub    %eax,%esi
 804859b:	c1 fe 02             	sar    $0x2,%esi
 804859e:	85 f6                	test   %esi,%esi
 80485a0:	74 27                	je     80485c9 <__libc_csu_init+0x59>
 80485a2:	8d b6 00 00 00 00    	lea    0x0(%esi),%esi
 80485a8:	8b 44 24 38          	mov    0x38(%esp),%eax
 80485ac:	89 2c 24             	mov    %ebp,(%esp)
 80485af:	89 44 24 08          	mov    %eax,0x8(%esp)
 80485b3:	8b 44 24 34          	mov    0x34(%esp),%eax
 80485b7:	89 44 24 04          	mov    %eax,0x4(%esp)
 80485bb:	ff 94 bb 08 ff ff ff 	call   *-0xf8(%ebx,%edi,4)
 80485c2:	83 c7 01             	add    $0x1,%edi
 80485c5:	39 f7                	cmp    %esi,%edi
 80485c7:	75 df                	jne    80485a8 <__libc_csu_init+0x38>
 80485c9:	83 c4 1c             	add    $0x1c,%esp
 80485cc:	5b                   	pop    %ebx
 80485cd:	5e                   	pop    %esi
 80485ce:	5f                   	pop    %edi
 80485cf:	5d                   	pop    %ebp
 80485d0:	c3                   	ret    
 80485d1:	eb 0d                	jmp    80485e0 <__libc_csu_fini>
 80485d3:	90                   	nop
 80485d4:	90                   	nop
 80485d5:	90                   	nop
 80485d6:	90                   	nop
 80485d7:	90                   	nop
 80485d8:	90                   	nop
 80485d9:	90                   	nop
 80485da:	90                   	nop
 80485db:	90                   	nop
 80485dc:	90                   	nop
 80485dd:	90                   	nop
 80485de:	90                   	nop
 80485df:	90                   	nop

080485e0 <__libc_csu_fini>:
 80485e0:	f3 c3                	repz ret 

Disassembly of section .fini:

080485e4 <_fini>:
 80485e4:	53                   	push   %ebx
 80485e5:	83 ec 08             	sub    $0x8,%esp
 80485e8:	e8 43 fe ff ff       	call   8048430 <__x86.get_pc_thunk.bx>
 80485ed:	81 c3 13 1a 00 00    	add    $0x1a13,%ebx
 80485f3:	83 c4 08             	add    $0x8,%esp
 80485f6:	5b                   	pop    %ebx
 80485f7:	c3                   	ret    
