
migrartion:     file format elf32-i386


Disassembly of section .init:

08048318 <_init>:
 8048318:	53                   	push   %ebx
 8048319:	83 ec 08             	sub    $0x8,%esp
 804831c:	e8 af 00 00 00       	call   80483d0 <__x86.get_pc_thunk.bx>
 8048321:	81 c3 bb 1c 00 00    	add    $0x1cbb,%ebx
 8048327:	8b 83 20 00 00 00    	mov    0x20(%ebx),%eax
 804832d:	85 c0                	test   %eax,%eax
 804832f:	74 05                	je     8048336 <_init+0x1e>
 8048331:	e8 3a 00 00 00       	call   8048370 <__gmon_start__@plt>
 8048336:	83 c4 08             	add    $0x8,%esp
 8048339:	5b                   	pop    %ebx
 804833a:	c3                   	ret    

Disassembly of section .plt:

08048340 <read@plt-0x10>:
 8048340:	ff 35 e0 9f 04 08    	pushl  0x8049fe0
 8048346:	ff 25 e4 9f 04 08    	jmp    *0x8049fe4
 804834c:	00 00                	add    %al,(%eax)
	...

08048350 <read@plt>:
 8048350:	ff 25 e8 9f 04 08    	jmp    *0x8049fe8
 8048356:	68 00 00 00 00       	push   $0x0
 804835b:	e9 e0 ff ff ff       	jmp    8048340 <_init+0x28>

08048360 <puts@plt>:
 8048360:	ff 25 ec 9f 04 08    	jmp    *0x8049fec
 8048366:	68 08 00 00 00       	push   $0x8
 804836b:	e9 d0 ff ff ff       	jmp    8048340 <_init+0x28>

08048370 <__gmon_start__@plt>:
 8048370:	ff 25 f0 9f 04 08    	jmp    *0x8049ff0
 8048376:	68 10 00 00 00       	push   $0x10
 804837b:	e9 c0 ff ff ff       	jmp    8048340 <_init+0x28>

08048380 <__libc_start_main@plt>:
 8048380:	ff 25 f4 9f 04 08    	jmp    *0x8049ff4
 8048386:	68 18 00 00 00       	push   $0x18
 804838b:	e9 b0 ff ff ff       	jmp    8048340 <_init+0x28>

08048390 <setvbuf@plt>:
 8048390:	ff 25 f8 9f 04 08    	jmp    *0x8049ff8
 8048396:	68 20 00 00 00       	push   $0x20
 804839b:	e9 a0 ff ff ff       	jmp    8048340 <_init+0x28>

Disassembly of section .text:

080483a0 <_start>:
 80483a0:	31 ed                	xor    %ebp,%ebp
 80483a2:	5e                   	pop    %esi
 80483a3:	89 e1                	mov    %esp,%ecx
 80483a5:	83 e4 f0             	and    $0xfffffff0,%esp
 80483a8:	50                   	push   %eax
 80483a9:	54                   	push   %esp
 80483aa:	52                   	push   %edx
 80483ab:	68 70 85 04 08       	push   $0x8048570
 80483b0:	68 00 85 04 08       	push   $0x8048500
 80483b5:	51                   	push   %ecx
 80483b6:	56                   	push   %esi
 80483b7:	68 9d 84 04 08       	push   $0x804849d
 80483bc:	e8 bf ff ff ff       	call   8048380 <__libc_start_main@plt>
 80483c1:	f4                   	hlt    
 80483c2:	66 90                	xchg   %ax,%ax
 80483c4:	66 90                	xchg   %ax,%ax
 80483c6:	66 90                	xchg   %ax,%ax
 80483c8:	66 90                	xchg   %ax,%ax
 80483ca:	66 90                	xchg   %ax,%ax
 80483cc:	66 90                	xchg   %ax,%ax
 80483ce:	66 90                	xchg   %ax,%ax

080483d0 <__x86.get_pc_thunk.bx>:
 80483d0:	8b 1c 24             	mov    (%esp),%ebx
 80483d3:	c3                   	ret    
 80483d4:	66 90                	xchg   %ax,%ax
 80483d6:	66 90                	xchg   %ax,%ax
 80483d8:	66 90                	xchg   %ax,%ax
 80483da:	66 90                	xchg   %ax,%ax
 80483dc:	66 90                	xchg   %ax,%ax
 80483de:	66 90                	xchg   %ax,%ax

080483e0 <deregister_tm_clones>:
 80483e0:	b8 0b a0 04 08       	mov    $0x804a00b,%eax
 80483e5:	2d 08 a0 04 08       	sub    $0x804a008,%eax
 80483ea:	83 f8 06             	cmp    $0x6,%eax
 80483ed:	77 01                	ja     80483f0 <deregister_tm_clones+0x10>
 80483ef:	c3                   	ret    
 80483f0:	b8 00 00 00 00       	mov    $0x0,%eax
 80483f5:	85 c0                	test   %eax,%eax
 80483f7:	74 f6                	je     80483ef <deregister_tm_clones+0xf>
 80483f9:	55                   	push   %ebp
 80483fa:	89 e5                	mov    %esp,%ebp
 80483fc:	83 ec 18             	sub    $0x18,%esp
 80483ff:	c7 04 24 08 a0 04 08 	movl   $0x804a008,(%esp)
 8048406:	ff d0                	call   *%eax
 8048408:	c9                   	leave  
 8048409:	c3                   	ret    
 804840a:	8d b6 00 00 00 00    	lea    0x0(%esi),%esi

08048410 <register_tm_clones>:
 8048410:	b8 08 a0 04 08       	mov    $0x804a008,%eax
 8048415:	2d 08 a0 04 08       	sub    $0x804a008,%eax
 804841a:	c1 f8 02             	sar    $0x2,%eax
 804841d:	89 c2                	mov    %eax,%edx
 804841f:	c1 ea 1f             	shr    $0x1f,%edx
 8048422:	01 d0                	add    %edx,%eax
 8048424:	d1 f8                	sar    %eax
 8048426:	75 01                	jne    8048429 <register_tm_clones+0x19>
 8048428:	c3                   	ret    
 8048429:	ba 00 00 00 00       	mov    $0x0,%edx
 804842e:	85 d2                	test   %edx,%edx
 8048430:	74 f6                	je     8048428 <register_tm_clones+0x18>
 8048432:	55                   	push   %ebp
 8048433:	89 e5                	mov    %esp,%ebp
 8048435:	83 ec 18             	sub    $0x18,%esp
 8048438:	89 44 24 04          	mov    %eax,0x4(%esp)
 804843c:	c7 04 24 08 a0 04 08 	movl   $0x804a008,(%esp)
 8048443:	ff d2                	call   *%edx
 8048445:	c9                   	leave  
 8048446:	c3                   	ret    
 8048447:	89 f6                	mov    %esi,%esi
 8048449:	8d bc 27 00 00 00 00 	lea    0x0(%edi,%eiz,1),%edi

08048450 <__do_global_dtors_aux>:
 8048450:	80 3d 24 a0 04 08 00 	cmpb   $0x0,0x804a024
 8048457:	75 13                	jne    804846c <__do_global_dtors_aux+0x1c>
 8048459:	55                   	push   %ebp
 804845a:	89 e5                	mov    %esp,%ebp
 804845c:	83 ec 08             	sub    $0x8,%esp
 804845f:	e8 7c ff ff ff       	call   80483e0 <deregister_tm_clones>
 8048464:	c6 05 24 a0 04 08 01 	movb   $0x1,0x804a024
 804846b:	c9                   	leave  
 804846c:	f3 c3                	repz ret 
 804846e:	66 90                	xchg   %ax,%ax

08048470 <frame_dummy>:
 8048470:	a1 e0 9e 04 08       	mov    0x8049ee0,%eax
 8048475:	85 c0                	test   %eax,%eax
 8048477:	74 1f                	je     8048498 <frame_dummy+0x28>
 8048479:	b8 00 00 00 00       	mov    $0x0,%eax
 804847e:	85 c0                	test   %eax,%eax
 8048480:	74 16                	je     8048498 <frame_dummy+0x28>
 8048482:	55                   	push   %ebp
 8048483:	89 e5                	mov    %esp,%ebp
 8048485:	83 ec 18             	sub    $0x18,%esp
 8048488:	c7 04 24 e0 9e 04 08 	movl   $0x8049ee0,(%esp)
 804848f:	ff d0                	call   *%eax
 8048491:	c9                   	leave  
 8048492:	e9 79 ff ff ff       	jmp    8048410 <register_tm_clones>
 8048497:	90                   	nop
 8048498:	e9 73 ff ff ff       	jmp    8048410 <register_tm_clones>

0804849d <main>:
 804849d:	55                   	push   %ebp
 804849e:	89 e5                	mov    %esp,%ebp
 80484a0:	83 e4 f0             	and    $0xfffffff0,%esp
 80484a3:	83 ec 40             	sub    $0x40,%esp
 80484a6:	a1 20 a0 04 08       	mov    0x804a020,%eax
 80484ab:	c7 44 24 0c 00 00 00 	movl   $0x0,0xc(%esp)
 80484b2:	00 
 80484b3:	c7 44 24 08 02 00 00 	movl   $0x2,0x8(%esp)
 80484ba:	00 
 80484bb:	c7 44 24 04 00 00 00 	movl   $0x0,0x4(%esp)
 80484c2:	00 
 80484c3:	89 04 24             	mov    %eax,(%esp)
 80484c6:	e8 c5 fe ff ff       	call   8048390 <setvbuf@plt>
 80484cb:	c7 04 24 90 85 04 08 	movl   $0x8048590,(%esp)
 80484d2:	e8 89 fe ff ff       	call   8048360 <puts@plt>
 80484d7:	c7 44 24 08 48 00 00 	movl   $0x48,0x8(%esp)
 80484de:	00 
 80484df:	8d 44 24 18          	lea    0x18(%esp),%eax
 80484e3:	89 44 24 04          	mov    %eax,0x4(%esp)
 80484e7:	c7 04 24 00 00 00 00 	movl   $0x0,(%esp)
 80484ee:	e8 5d fe ff ff       	call   8048350 <read@plt>
 80484f3:	90                   	nop
 80484f4:	c9                   	leave  
 80484f5:	c3                   	ret    
 80484f6:	66 90                	xchg   %ax,%ax
 80484f8:	66 90                	xchg   %ax,%ax
 80484fa:	66 90                	xchg   %ax,%ax
 80484fc:	66 90                	xchg   %ax,%ax
 80484fe:	66 90                	xchg   %ax,%ax

08048500 <__libc_csu_init>:
 8048500:	55                   	push   %ebp
 8048501:	57                   	push   %edi
 8048502:	31 ff                	xor    %edi,%edi
 8048504:	56                   	push   %esi
 8048505:	53                   	push   %ebx
 8048506:	e8 c5 fe ff ff       	call   80483d0 <__x86.get_pc_thunk.bx>
 804850b:	81 c3 d1 1a 00 00    	add    $0x1ad1,%ebx
 8048511:	83 ec 1c             	sub    $0x1c,%esp
 8048514:	8b 6c 24 30          	mov    0x30(%esp),%ebp
 8048518:	8d b3 00 ff ff ff    	lea    -0x100(%ebx),%esi
 804851e:	e8 f5 fd ff ff       	call   8048318 <_init>
 8048523:	8d 83 fc fe ff ff    	lea    -0x104(%ebx),%eax
 8048529:	29 c6                	sub    %eax,%esi
 804852b:	c1 fe 02             	sar    $0x2,%esi
 804852e:	85 f6                	test   %esi,%esi
 8048530:	74 27                	je     8048559 <__libc_csu_init+0x59>
 8048532:	8d b6 00 00 00 00    	lea    0x0(%esi),%esi
 8048538:	8b 44 24 38          	mov    0x38(%esp),%eax
 804853c:	89 2c 24             	mov    %ebp,(%esp)
 804853f:	89 44 24 08          	mov    %eax,0x8(%esp)
 8048543:	8b 44 24 34          	mov    0x34(%esp),%eax
 8048547:	89 44 24 04          	mov    %eax,0x4(%esp)
 804854b:	ff 94 bb fc fe ff ff 	call   *-0x104(%ebx,%edi,4)
 8048552:	83 c7 01             	add    $0x1,%edi
 8048555:	39 f7                	cmp    %esi,%edi
 8048557:	75 df                	jne    8048538 <__libc_csu_init+0x38>
 8048559:	83 c4 1c             	add    $0x1c,%esp
 804855c:	5b                   	pop    %ebx
 804855d:	5e                   	pop    %esi
 804855e:	5f                   	pop    %edi
 804855f:	5d                   	pop    %ebp
 8048560:	c3                   	ret    
 8048561:	eb 0d                	jmp    8048570 <__libc_csu_fini>
 8048563:	90                   	nop
 8048564:	90                   	nop
 8048565:	90                   	nop
 8048566:	90                   	nop
 8048567:	90                   	nop
 8048568:	90                   	nop
 8048569:	90                   	nop
 804856a:	90                   	nop
 804856b:	90                   	nop
 804856c:	90                   	nop
 804856d:	90                   	nop
 804856e:	90                   	nop
 804856f:	90                   	nop

08048570 <__libc_csu_fini>:
 8048570:	f3 c3                	repz ret 

Disassembly of section .fini:

08048574 <_fini>:
 8048574:	53                   	push   %ebx
 8048575:	83 ec 08             	sub    $0x8,%esp
 8048578:	e8 53 fe ff ff       	call   80483d0 <__x86.get_pc_thunk.bx>
 804857d:	81 c3 5f 1a 00 00    	add    $0x1a5f,%ebx
 8048583:	83 c4 08             	add    $0x8,%esp
 8048586:	5b                   	pop    %ebx
 8048587:	c3                   	ret    
