
phddb:     file format elf32-i386


Disassembly of section .init:

08048460 <_init>:
 8048460:	53                   	push   %ebx
 8048461:	83 ec 08             	sub    $0x8,%esp
 8048464:	e8 37 01 00 00       	call   80485a0 <__x86.get_pc_thunk.bx>
 8048469:	81 c3 97 2b 00 00    	add    $0x2b97,%ebx
 804846f:	8b 83 fc ff ff ff    	mov    -0x4(%ebx),%eax
 8048475:	85 c0                	test   %eax,%eax
 8048477:	74 05                	je     804847e <_init+0x1e>
 8048479:	e8 a2 00 00 00       	call   8048520 <__gmon_start__@plt>
 804847e:	83 c4 08             	add    $0x8,%esp
 8048481:	5b                   	pop    %ebx
 8048482:	c3                   	ret    

Disassembly of section .plt:

08048490 <read@plt-0x10>:
 8048490:	ff 35 04 b0 04 08    	pushl  0x804b004
 8048496:	ff 25 08 b0 04 08    	jmp    *0x804b008
 804849c:	00 00                	add    %al,(%eax)
	...

080484a0 <read@plt>:
 80484a0:	ff 25 0c b0 04 08    	jmp    *0x804b00c
 80484a6:	68 00 00 00 00       	push   $0x0
 80484ab:	e9 e0 ff ff ff       	jmp    8048490 <_init+0x30>

080484b0 <printf@plt>:
 80484b0:	ff 25 10 b0 04 08    	jmp    *0x804b010
 80484b6:	68 08 00 00 00       	push   $0x8
 80484bb:	e9 d0 ff ff ff       	jmp    8048490 <_init+0x30>

080484c0 <fflush@plt>:
 80484c0:	ff 25 14 b0 04 08    	jmp    *0x804b014
 80484c6:	68 10 00 00 00       	push   $0x10
 80484cb:	e9 c0 ff ff ff       	jmp    8048490 <_init+0x30>

080484d0 <free@plt>:
 80484d0:	ff 25 18 b0 04 08    	jmp    *0x804b018
 80484d6:	68 18 00 00 00       	push   $0x18
 80484db:	e9 b0 ff ff ff       	jmp    8048490 <_init+0x30>

080484e0 <__stack_chk_fail@plt>:
 80484e0:	ff 25 1c b0 04 08    	jmp    *0x804b01c
 80484e6:	68 20 00 00 00       	push   $0x20
 80484eb:	e9 a0 ff ff ff       	jmp    8048490 <_init+0x30>

080484f0 <realloc@plt>:
 80484f0:	ff 25 20 b0 04 08    	jmp    *0x804b020
 80484f6:	68 28 00 00 00       	push   $0x28
 80484fb:	e9 90 ff ff ff       	jmp    8048490 <_init+0x30>

08048500 <malloc@plt>:
 8048500:	ff 25 24 b0 04 08    	jmp    *0x804b024
 8048506:	68 30 00 00 00       	push   $0x30
 804850b:	e9 80 ff ff ff       	jmp    8048490 <_init+0x30>

08048510 <puts@plt>:
 8048510:	ff 25 28 b0 04 08    	jmp    *0x804b028
 8048516:	68 38 00 00 00       	push   $0x38
 804851b:	e9 70 ff ff ff       	jmp    8048490 <_init+0x30>

08048520 <__gmon_start__@plt>:
 8048520:	ff 25 2c b0 04 08    	jmp    *0x804b02c
 8048526:	68 40 00 00 00       	push   $0x40
 804852b:	e9 60 ff ff ff       	jmp    8048490 <_init+0x30>

08048530 <exit@plt>:
 8048530:	ff 25 30 b0 04 08    	jmp    *0x804b030
 8048536:	68 48 00 00 00       	push   $0x48
 804853b:	e9 50 ff ff ff       	jmp    8048490 <_init+0x30>

08048540 <__libc_start_main@plt>:
 8048540:	ff 25 34 b0 04 08    	jmp    *0x804b034
 8048546:	68 50 00 00 00       	push   $0x50
 804854b:	e9 40 ff ff ff       	jmp    8048490 <_init+0x30>

08048550 <__isoc99_scanf@plt>:
 8048550:	ff 25 38 b0 04 08    	jmp    *0x804b038
 8048556:	68 58 00 00 00       	push   $0x58
 804855b:	e9 30 ff ff ff       	jmp    8048490 <_init+0x30>

08048560 <atoi@plt>:
 8048560:	ff 25 3c b0 04 08    	jmp    *0x804b03c
 8048566:	68 60 00 00 00       	push   $0x60
 804856b:	e9 20 ff ff ff       	jmp    8048490 <_init+0x30>

Disassembly of section .text:

08048570 <_start>:
 8048570:	31 ed                	xor    %ebp,%ebp
 8048572:	5e                   	pop    %esi
 8048573:	89 e1                	mov    %esp,%ecx
 8048575:	83 e4 f0             	and    $0xfffffff0,%esp
 8048578:	50                   	push   %eax
 8048579:	54                   	push   %esp
 804857a:	52                   	push   %edx
 804857b:	68 e0 8e 04 08       	push   $0x8048ee0
 8048580:	68 70 8e 04 08       	push   $0x8048e70
 8048585:	51                   	push   %ecx
 8048586:	56                   	push   %esi
 8048587:	68 9d 8d 04 08       	push   $0x8048d9d
 804858c:	e8 af ff ff ff       	call   8048540 <__libc_start_main@plt>
 8048591:	f4                   	hlt    
 8048592:	66 90                	xchg   %ax,%ax
 8048594:	66 90                	xchg   %ax,%ax
 8048596:	66 90                	xchg   %ax,%ax
 8048598:	66 90                	xchg   %ax,%ax
 804859a:	66 90                	xchg   %ax,%ax
 804859c:	66 90                	xchg   %ax,%ax
 804859e:	66 90                	xchg   %ax,%ax

080485a0 <__x86.get_pc_thunk.bx>:
 80485a0:	8b 1c 24             	mov    (%esp),%ebx
 80485a3:	c3                   	ret    
 80485a4:	66 90                	xchg   %ax,%ax
 80485a6:	66 90                	xchg   %ax,%ax
 80485a8:	66 90                	xchg   %ax,%ax
 80485aa:	66 90                	xchg   %ax,%ax
 80485ac:	66 90                	xchg   %ax,%ax
 80485ae:	66 90                	xchg   %ax,%ax

080485b0 <deregister_tm_clones>:
 80485b0:	b8 4b b0 04 08       	mov    $0x804b04b,%eax
 80485b5:	2d 48 b0 04 08       	sub    $0x804b048,%eax
 80485ba:	83 f8 06             	cmp    $0x6,%eax
 80485bd:	77 01                	ja     80485c0 <deregister_tm_clones+0x10>
 80485bf:	c3                   	ret    
 80485c0:	b8 00 00 00 00       	mov    $0x0,%eax
 80485c5:	85 c0                	test   %eax,%eax
 80485c7:	74 f6                	je     80485bf <deregister_tm_clones+0xf>
 80485c9:	55                   	push   %ebp
 80485ca:	89 e5                	mov    %esp,%ebp
 80485cc:	83 ec 18             	sub    $0x18,%esp
 80485cf:	c7 04 24 48 b0 04 08 	movl   $0x804b048,(%esp)
 80485d6:	ff d0                	call   *%eax
 80485d8:	c9                   	leave  
 80485d9:	c3                   	ret    
 80485da:	8d b6 00 00 00 00    	lea    0x0(%esi),%esi

080485e0 <register_tm_clones>:
 80485e0:	b8 48 b0 04 08       	mov    $0x804b048,%eax
 80485e5:	2d 48 b0 04 08       	sub    $0x804b048,%eax
 80485ea:	c1 f8 02             	sar    $0x2,%eax
 80485ed:	89 c2                	mov    %eax,%edx
 80485ef:	c1 ea 1f             	shr    $0x1f,%edx
 80485f2:	01 d0                	add    %edx,%eax
 80485f4:	d1 f8                	sar    %eax
 80485f6:	75 01                	jne    80485f9 <register_tm_clones+0x19>
 80485f8:	c3                   	ret    
 80485f9:	ba 00 00 00 00       	mov    $0x0,%edx
 80485fe:	85 d2                	test   %edx,%edx
 8048600:	74 f6                	je     80485f8 <register_tm_clones+0x18>
 8048602:	55                   	push   %ebp
 8048603:	89 e5                	mov    %esp,%ebp
 8048605:	83 ec 18             	sub    $0x18,%esp
 8048608:	89 44 24 04          	mov    %eax,0x4(%esp)
 804860c:	c7 04 24 48 b0 04 08 	movl   $0x804b048,(%esp)
 8048613:	ff d2                	call   *%edx
 8048615:	c9                   	leave  
 8048616:	c3                   	ret    
 8048617:	89 f6                	mov    %esi,%esi
 8048619:	8d bc 27 00 00 00 00 	lea    0x0(%edi,%eiz,1),%edi

08048620 <__do_global_dtors_aux>:
 8048620:	80 3d 64 b0 04 08 00 	cmpb   $0x0,0x804b064
 8048627:	75 13                	jne    804863c <__do_global_dtors_aux+0x1c>
 8048629:	55                   	push   %ebp
 804862a:	89 e5                	mov    %esp,%ebp
 804862c:	83 ec 08             	sub    $0x8,%esp
 804862f:	e8 7c ff ff ff       	call   80485b0 <deregister_tm_clones>
 8048634:	c6 05 64 b0 04 08 01 	movb   $0x1,0x804b064
 804863b:	c9                   	leave  
 804863c:	f3 c3                	repz ret 
 804863e:	66 90                	xchg   %ax,%ax

08048640 <frame_dummy>:
 8048640:	a1 10 af 04 08       	mov    0x804af10,%eax
 8048645:	85 c0                	test   %eax,%eax
 8048647:	74 1f                	je     8048668 <frame_dummy+0x28>
 8048649:	b8 00 00 00 00       	mov    $0x0,%eax
 804864e:	85 c0                	test   %eax,%eax
 8048650:	74 16                	je     8048668 <frame_dummy+0x28>
 8048652:	55                   	push   %ebp
 8048653:	89 e5                	mov    %esp,%ebp
 8048655:	83 ec 18             	sub    $0x18,%esp
 8048658:	c7 04 24 10 af 04 08 	movl   $0x804af10,(%esp)
 804865f:	ff d0                	call   *%eax
 8048661:	c9                   	leave  
 8048662:	e9 79 ff ff ff       	jmp    80485e0 <register_tm_clones>
 8048667:	90                   	nop
 8048668:	e9 73 ff ff ff       	jmp    80485e0 <register_tm_clones>

0804866d <menu>:
 804866d:	55                   	push   %ebp
 804866e:	89 e5                	mov    %esp,%ebp
 8048670:	83 ec 18             	sub    $0x18,%esp
 8048673:	c7 04 24 00 8f 04 08 	movl   $0x8048f00,(%esp)
 804867a:	e8 91 fe ff ff       	call   8048510 <puts@plt>
 804867f:	c7 04 24 04 8f 04 08 	movl   $0x8048f04,(%esp)
 8048686:	e8 85 fe ff ff       	call   8048510 <puts@plt>
 804868b:	c7 04 24 25 8f 04 08 	movl   $0x8048f25,(%esp)
 8048692:	e8 79 fe ff ff       	call   8048510 <puts@plt>
 8048697:	c7 04 24 3a 8f 04 08 	movl   $0x8048f3a,(%esp)
 804869e:	e8 6d fe ff ff       	call   8048510 <puts@plt>
 80486a3:	c7 04 24 4e 8f 04 08 	movl   $0x8048f4e,(%esp)
 80486aa:	e8 61 fe ff ff       	call   8048510 <puts@plt>
 80486af:	c7 04 24 63 8f 04 08 	movl   $0x8048f63,(%esp)
 80486b6:	e8 55 fe ff ff       	call   8048510 <puts@plt>
 80486bb:	c7 04 24 7a 8f 04 08 	movl   $0x8048f7a,(%esp)
 80486c2:	e8 49 fe ff ff       	call   8048510 <puts@plt>
 80486c7:	c7 04 24 84 8f 04 08 	movl   $0x8048f84,(%esp)
 80486ce:	e8 3d fe ff ff       	call   8048510 <puts@plt>
 80486d3:	c7 04 24 a5 8f 04 08 	movl   $0x8048fa5,(%esp)
 80486da:	e8 d1 fd ff ff       	call   80484b0 <printf@plt>
 80486df:	a1 60 b0 04 08       	mov    0x804b060,%eax
 80486e4:	89 04 24             	mov    %eax,(%esp)
 80486e7:	e8 d4 fd ff ff       	call   80484c0 <fflush@plt>
 80486ec:	c9                   	leave  
 80486ed:	c3                   	ret    

080486ee <addphd>:
 80486ee:	55                   	push   %ebp
 80486ef:	89 e5                	mov    %esp,%ebp
 80486f1:	83 ec 38             	sub    $0x38,%esp
 80486f4:	65 a1 14 00 00 00    	mov    %gs:0x14,%eax
 80486fa:	89 45 f4             	mov    %eax,-0xc(%ebp)
 80486fd:	31 c0                	xor    %eax,%eax
 80486ff:	c7 04 24 00 8f 04 08 	movl   $0x8048f00,(%esp)
 8048706:	e8 05 fe ff ff       	call   8048510 <puts@plt>
 804870b:	c7 45 e0 00 00 00 00 	movl   $0x0,-0x20(%ebp)
 8048712:	a1 68 b0 04 08       	mov    0x804b068,%eax
 8048717:	83 f8 63             	cmp    $0x63,%eax
 804871a:	0f 8f a4 01 00 00    	jg     80488c4 <addphd+0x1d6>
 8048720:	c7 04 24 b2 8f 04 08 	movl   $0x8048fb2,(%esp)
 8048727:	e8 e4 fd ff ff       	call   8048510 <puts@plt>
 804872c:	c7 04 24 20 00 00 00 	movl   $0x20,(%esp)
 8048733:	e8 c8 fd ff ff       	call   8048500 <malloc@plt>
 8048738:	89 45 e0             	mov    %eax,-0x20(%ebp)
 804873b:	c7 04 24 d0 8f 04 08 	movl   $0x8048fd0,(%esp)
 8048742:	e8 69 fd ff ff       	call   80484b0 <printf@plt>
 8048747:	a1 60 b0 04 08       	mov    0x804b060,%eax
 804874c:	89 04 24             	mov    %eax,(%esp)
 804874f:	e8 6c fd ff ff       	call   80484c0 <fflush@plt>
 8048754:	8b 45 e0             	mov    -0x20(%ebp),%eax
 8048757:	89 44 24 04          	mov    %eax,0x4(%esp)
 804875b:	c7 04 24 f6 8f 04 08 	movl   $0x8048ff6,(%esp)
 8048762:	e8 e9 fd ff ff       	call   8048550 <__isoc99_scanf@plt>
 8048767:	a1 60 b0 04 08       	mov    0x804b060,%eax
 804876c:	89 04 24             	mov    %eax,(%esp)
 804876f:	e8 4c fd ff ff       	call   80484c0 <fflush@plt>
 8048774:	c7 04 24 fb 8f 04 08 	movl   $0x8048ffb,(%esp)
 804877b:	e8 30 fd ff ff       	call   80484b0 <printf@plt>
 8048780:	a1 60 b0 04 08       	mov    0x804b060,%eax
 8048785:	89 04 24             	mov    %eax,(%esp)
 8048788:	e8 33 fd ff ff       	call   80484c0 <fflush@plt>
 804878d:	c7 44 24 08 08 00 00 	movl   $0x8,0x8(%esp)
 8048794:	00 
 8048795:	8d 45 ea             	lea    -0x16(%ebp),%eax
 8048798:	89 44 24 04          	mov    %eax,0x4(%esp)
 804879c:	c7 04 24 00 00 00 00 	movl   $0x0,(%esp)
 80487a3:	e8 f8 fc ff ff       	call   80484a0 <read@plt>
 80487a8:	8d 45 ea             	lea    -0x16(%ebp),%eax
 80487ab:	89 04 24             	mov    %eax,(%esp)
 80487ae:	e8 ad fd ff ff       	call   8048560 <atoi@plt>
 80487b3:	8b 55 e0             	mov    -0x20(%ebp),%edx
 80487b6:	89 42 14             	mov    %eax,0x14(%edx)
 80487b9:	c7 04 24 14 90 04 08 	movl   $0x8049014,(%esp)
 80487c0:	e8 eb fc ff ff       	call   80484b0 <printf@plt>
 80487c5:	a1 60 b0 04 08       	mov    0x804b060,%eax
 80487ca:	89 04 24             	mov    %eax,(%esp)
 80487cd:	e8 ee fc ff ff       	call   80484c0 <fflush@plt>
 80487d2:	c7 44 24 08 08 00 00 	movl   $0x8,0x8(%esp)
 80487d9:	00 
 80487da:	8d 45 ea             	lea    -0x16(%ebp),%eax
 80487dd:	89 44 24 04          	mov    %eax,0x4(%esp)
 80487e1:	c7 04 24 00 00 00 00 	movl   $0x0,(%esp)
 80487e8:	e8 b3 fc ff ff       	call   80484a0 <read@plt>
 80487ed:	8d 45 ea             	lea    -0x16(%ebp),%eax
 80487f0:	89 04 24             	mov    %eax,(%esp)
 80487f3:	e8 68 fd ff ff       	call   8048560 <atoi@plt>
 80487f8:	89 45 e4             	mov    %eax,-0x1c(%ebp)
 80487fb:	83 7d e4 00          	cmpl   $0x0,-0x1c(%ebp)
 80487ff:	7f 21                	jg     8048822 <addphd+0x134>
 8048801:	c7 04 24 3c 90 04 08 	movl   $0x804903c,(%esp)
 8048808:	e8 03 fd ff ff       	call   8048510 <puts@plt>
 804880d:	8b 45 e0             	mov    -0x20(%ebp),%eax
 8048810:	89 04 24             	mov    %eax,(%esp)
 8048813:	e8 b8 fc ff ff       	call   80484d0 <free@plt>
 8048818:	b8 00 00 00 00       	mov    $0x0,%eax
 804881d:	e9 b3 00 00 00       	jmp    80488d5 <addphd+0x1e7>
 8048822:	8b 45 e0             	mov    -0x20(%ebp),%eax
 8048825:	8b 55 e4             	mov    -0x1c(%ebp),%edx
 8048828:	89 50 18             	mov    %edx,0x18(%eax)
 804882b:	8b 45 e4             	mov    -0x1c(%ebp),%eax
 804882e:	89 04 24             	mov    %eax,(%esp)
 8048831:	e8 ca fc ff ff       	call   8048500 <malloc@plt>
 8048836:	89 c2                	mov    %eax,%edx
 8048838:	8b 45 e0             	mov    -0x20(%ebp),%eax
 804883b:	89 50 1c             	mov    %edx,0x1c(%eax)
 804883e:	c7 04 24 4c 90 04 08 	movl   $0x804904c,(%esp)
 8048845:	e8 66 fc ff ff       	call   80484b0 <printf@plt>
 804884a:	a1 60 b0 04 08       	mov    0x804b060,%eax
 804884f:	89 04 24             	mov    %eax,(%esp)
 8048852:	e8 69 fc ff ff       	call   80484c0 <fflush@plt>
 8048857:	8b 45 e0             	mov    -0x20(%ebp),%eax
 804885a:	8b 40 1c             	mov    0x1c(%eax),%eax
 804885d:	8b 55 e4             	mov    -0x1c(%ebp),%edx
 8048860:	89 54 24 08          	mov    %edx,0x8(%esp)
 8048864:	89 44 24 04          	mov    %eax,0x4(%esp)
 8048868:	c7 04 24 00 00 00 00 	movl   $0x0,(%esp)
 804886f:	e8 2c fc ff ff       	call   80484a0 <read@plt>
 8048874:	c7 45 dc 00 00 00 00 	movl   $0x0,-0x24(%ebp)
 804887b:	eb 21                	jmp    804889e <addphd+0x1b0>
 804887d:	8b 45 dc             	mov    -0x24(%ebp),%eax
 8048880:	8b 04 85 80 b0 04 08 	mov    0x804b080(,%eax,4),%eax
 8048887:	85 c0                	test   %eax,%eax
 8048889:	75 0f                	jne    804889a <addphd+0x1ac>
 804888b:	8b 45 dc             	mov    -0x24(%ebp),%eax
 804888e:	8b 55 e0             	mov    -0x20(%ebp),%edx
 8048891:	89 14 85 80 b0 04 08 	mov    %edx,0x804b080(,%eax,4)
 8048898:	eb 0a                	jmp    80488a4 <addphd+0x1b6>
 804889a:	83 45 dc 01          	addl   $0x1,-0x24(%ebp)
 804889e:	83 7d dc 64          	cmpl   $0x64,-0x24(%ebp)
 80488a2:	7e d9                	jle    804887d <addphd+0x18f>
 80488a4:	a1 68 b0 04 08       	mov    0x804b068,%eax
 80488a9:	83 c0 01             	add    $0x1,%eax
 80488ac:	a3 68 b0 04 08       	mov    %eax,0x804b068
 80488b1:	c7 04 24 75 90 04 08 	movl   $0x8049075,(%esp)
 80488b8:	e8 53 fc ff ff       	call   8048510 <puts@plt>
 80488bd:	b8 01 00 00 00       	mov    $0x1,%eax
 80488c2:	eb 11                	jmp    80488d5 <addphd+0x1e7>
 80488c4:	c7 04 24 82 90 04 08 	movl   $0x8049082,(%esp)
 80488cb:	e8 40 fc ff ff       	call   8048510 <puts@plt>
 80488d0:	b8 00 00 00 00       	mov    $0x0,%eax
 80488d5:	8b 4d f4             	mov    -0xc(%ebp),%ecx
 80488d8:	65 33 0d 14 00 00 00 	xor    %gs:0x14,%ecx
 80488df:	74 05                	je     80488e6 <addphd+0x1f8>
 80488e1:	e8 fa fb ff ff       	call   80484e0 <__stack_chk_fail@plt>
 80488e6:	c9                   	leave  
 80488e7:	c3                   	ret    

080488e8 <dumpphd>:
 80488e8:	55                   	push   %ebp
 80488e9:	89 e5                	mov    %esp,%ebp
 80488eb:	83 ec 38             	sub    $0x38,%esp
 80488ee:	65 a1 14 00 00 00    	mov    %gs:0x14,%eax
 80488f4:	89 45 f4             	mov    %eax,-0xc(%ebp)
 80488f7:	31 c0                	xor    %eax,%eax
 80488f9:	c7 04 24 00 8f 04 08 	movl   $0x8048f00,(%esp)
 8048900:	e8 0b fc ff ff       	call   8048510 <puts@plt>
 8048905:	c7 04 24 94 90 04 08 	movl   $0x8049094,(%esp)
 804890c:	e8 ff fb ff ff       	call   8048510 <puts@plt>
 8048911:	a1 60 b0 04 08       	mov    0x804b060,%eax
 8048916:	89 04 24             	mov    %eax,(%esp)
 8048919:	e8 a2 fb ff ff       	call   80484c0 <fflush@plt>
 804891e:	a1 68 b0 04 08       	mov    0x804b068,%eax
 8048923:	85 c0                	test   %eax,%eax
 8048925:	75 16                	jne    804893d <dumpphd+0x55>
 8048927:	c7 04 24 b3 90 04 08 	movl   $0x80490b3,(%esp)
 804892e:	e8 dd fb ff ff       	call   8048510 <puts@plt>
 8048933:	b8 00 00 00 00       	mov    $0x0,%eax
 8048938:	e9 d6 00 00 00       	jmp    8048a13 <dumpphd+0x12b>
 804893d:	c7 04 24 cc 90 04 08 	movl   $0x80490cc,(%esp)
 8048944:	e8 67 fb ff ff       	call   80484b0 <printf@plt>
 8048949:	a1 60 b0 04 08       	mov    0x804b060,%eax
 804894e:	89 04 24             	mov    %eax,(%esp)
 8048951:	e8 6a fb ff ff       	call   80484c0 <fflush@plt>
 8048956:	c7 44 24 08 08 00 00 	movl   $0x8,0x8(%esp)
 804895d:	00 
 804895e:	8d 45 ea             	lea    -0x16(%ebp),%eax
 8048961:	89 44 24 04          	mov    %eax,0x4(%esp)
 8048965:	c7 04 24 00 00 00 00 	movl   $0x0,(%esp)
 804896c:	e8 2f fb ff ff       	call   80484a0 <read@plt>
 8048971:	8d 45 ea             	lea    -0x16(%ebp),%eax
 8048974:	89 04 24             	mov    %eax,(%esp)
 8048977:	e8 e4 fb ff ff       	call   8048560 <atoi@plt>
 804897c:	89 45 e4             	mov    %eax,-0x1c(%ebp)
 804897f:	83 7d e4 63          	cmpl   $0x63,-0x1c(%ebp)
 8048983:	7f 14                	jg     8048999 <dumpphd+0xb1>
 8048985:	83 7d e4 00          	cmpl   $0x0,-0x1c(%ebp)
 8048989:	78 0e                	js     8048999 <dumpphd+0xb1>
 804898b:	8b 45 e4             	mov    -0x1c(%ebp),%eax
 804898e:	8b 04 85 80 b0 04 08 	mov    0x804b080(,%eax,4),%eax
 8048995:	85 c0                	test   %eax,%eax
 8048997:	75 13                	jne    80489ac <dumpphd+0xc4>
 8048999:	c7 04 24 ef 90 04 08 	movl   $0x80490ef,(%esp)
 80489a0:	e8 6b fb ff ff       	call   8048510 <puts@plt>
 80489a5:	b8 00 00 00 00       	mov    $0x0,%eax
 80489aa:	eb 67                	jmp    8048a13 <dumpphd+0x12b>
 80489ac:	8b 45 e4             	mov    -0x1c(%ebp),%eax
 80489af:	8b 04 85 80 b0 04 08 	mov    0x804b080(,%eax,4),%eax
 80489b6:	8b 50 14             	mov    0x14(%eax),%edx
 80489b9:	8b 45 e4             	mov    -0x1c(%ebp),%eax
 80489bc:	8b 04 85 80 b0 04 08 	mov    0x804b080(,%eax,4),%eax
 80489c3:	89 54 24 08          	mov    %edx,0x8(%esp)
 80489c7:	89 44 24 04          	mov    %eax,0x4(%esp)
 80489cb:	c7 04 24 fd 90 04 08 	movl   $0x80490fd,(%esp)
 80489d2:	e8 d9 fa ff ff       	call   80484b0 <printf@plt>
 80489d7:	a1 60 b0 04 08       	mov    0x804b060,%eax
 80489dc:	89 04 24             	mov    %eax,(%esp)
 80489df:	e8 dc fa ff ff       	call   80484c0 <fflush@plt>
 80489e4:	8b 45 e4             	mov    -0x1c(%ebp),%eax
 80489e7:	8b 04 85 80 b0 04 08 	mov    0x804b080(,%eax,4),%eax
 80489ee:	8b 40 1c             	mov    0x1c(%eax),%eax
 80489f1:	89 44 24 04          	mov    %eax,0x4(%esp)
 80489f5:	c7 04 24 0d 91 04 08 	movl   $0x804910d,(%esp)
 80489fc:	e8 af fa ff ff       	call   80484b0 <printf@plt>
 8048a01:	a1 60 b0 04 08       	mov    0x804b060,%eax
 8048a06:	89 04 24             	mov    %eax,(%esp)
 8048a09:	e8 b2 fa ff ff       	call   80484c0 <fflush@plt>
 8048a0e:	b8 01 00 00 00       	mov    $0x1,%eax
 8048a13:	8b 4d f4             	mov    -0xc(%ebp),%ecx
 8048a16:	65 33 0d 14 00 00 00 	xor    %gs:0x14,%ecx
 8048a1d:	74 05                	je     8048a24 <dumpphd+0x13c>
 8048a1f:	e8 bc fa ff ff       	call   80484e0 <__stack_chk_fail@plt>
 8048a24:	c9                   	leave  
 8048a25:	c3                   	ret    

08048a26 <editphd>:
 8048a26:	55                   	push   %ebp
 8048a27:	89 e5                	mov    %esp,%ebp
 8048a29:	53                   	push   %ebx
 8048a2a:	83 ec 34             	sub    $0x34,%esp
 8048a2d:	65 a1 14 00 00 00    	mov    %gs:0x14,%eax
 8048a33:	89 45 f4             	mov    %eax,-0xc(%ebp)
 8048a36:	31 c0                	xor    %eax,%eax
 8048a38:	c7 04 24 00 8f 04 08 	movl   $0x8048f00,(%esp)
 8048a3f:	e8 cc fa ff ff       	call   8048510 <puts@plt>
 8048a44:	c7 04 24 18 91 04 08 	movl   $0x8049118,(%esp)
 8048a4b:	e8 c0 fa ff ff       	call   8048510 <puts@plt>
 8048a50:	a1 68 b0 04 08       	mov    0x804b068,%eax
 8048a55:	85 c0                	test   %eax,%eax
 8048a57:	75 16                	jne    8048a6f <editphd+0x49>
 8048a59:	c7 04 24 35 91 04 08 	movl   $0x8049135,(%esp)
 8048a60:	e8 ab fa ff ff       	call   8048510 <puts@plt>
 8048a65:	b8 00 00 00 00       	mov    $0x0,%eax
 8048a6a:	e9 fa 01 00 00       	jmp    8048c69 <editphd+0x243>
 8048a6f:	c7 04 24 50 91 04 08 	movl   $0x8049150,(%esp)
 8048a76:	e8 35 fa ff ff       	call   80484b0 <printf@plt>
 8048a7b:	a1 60 b0 04 08       	mov    0x804b060,%eax
 8048a80:	89 04 24             	mov    %eax,(%esp)
 8048a83:	e8 38 fa ff ff       	call   80484c0 <fflush@plt>
 8048a88:	c7 44 24 08 08 00 00 	movl   $0x8,0x8(%esp)
 8048a8f:	00 
 8048a90:	8d 45 ea             	lea    -0x16(%ebp),%eax
 8048a93:	89 44 24 04          	mov    %eax,0x4(%esp)
 8048a97:	c7 04 24 00 00 00 00 	movl   $0x0,(%esp)
 8048a9e:	e8 fd f9 ff ff       	call   80484a0 <read@plt>
 8048aa3:	8d 45 ea             	lea    -0x16(%ebp),%eax
 8048aa6:	89 04 24             	mov    %eax,(%esp)
 8048aa9:	e8 b2 fa ff ff       	call   8048560 <atoi@plt>
 8048aae:	89 45 dc             	mov    %eax,-0x24(%ebp)
 8048ab1:	83 7d dc 63          	cmpl   $0x63,-0x24(%ebp)
 8048ab5:	7f 14                	jg     8048acb <editphd+0xa5>
 8048ab7:	83 7d dc 00          	cmpl   $0x0,-0x24(%ebp)
 8048abb:	78 0e                	js     8048acb <editphd+0xa5>
 8048abd:	8b 45 dc             	mov    -0x24(%ebp),%eax
 8048ac0:	8b 04 85 80 b0 04 08 	mov    0x804b080(,%eax,4),%eax
 8048ac7:	85 c0                	test   %eax,%eax
 8048ac9:	75 16                	jne    8048ae1 <editphd+0xbb>
 8048acb:	c7 04 24 ef 90 04 08 	movl   $0x80490ef,(%esp)
 8048ad2:	e8 39 fa ff ff       	call   8048510 <puts@plt>
 8048ad7:	b8 00 00 00 00       	mov    $0x0,%eax
 8048adc:	e9 88 01 00 00       	jmp    8048c69 <editphd+0x243>
 8048ae1:	c7 04 24 d0 8f 04 08 	movl   $0x8048fd0,(%esp)
 8048ae8:	e8 c3 f9 ff ff       	call   80484b0 <printf@plt>
 8048aed:	a1 60 b0 04 08       	mov    0x804b060,%eax
 8048af2:	89 04 24             	mov    %eax,(%esp)
 8048af5:	e8 c6 f9 ff ff       	call   80484c0 <fflush@plt>
 8048afa:	8b 45 dc             	mov    -0x24(%ebp),%eax
 8048afd:	8b 04 85 80 b0 04 08 	mov    0x804b080(,%eax,4),%eax
 8048b04:	89 44 24 04          	mov    %eax,0x4(%esp)
 8048b08:	c7 04 24 f6 8f 04 08 	movl   $0x8048ff6,(%esp)
 8048b0f:	e8 3c fa ff ff       	call   8048550 <__isoc99_scanf@plt>
 8048b14:	c7 04 24 fb 8f 04 08 	movl   $0x8048ffb,(%esp)
 8048b1b:	e8 90 f9 ff ff       	call   80484b0 <printf@plt>
 8048b20:	a1 60 b0 04 08       	mov    0x804b060,%eax
 8048b25:	89 04 24             	mov    %eax,(%esp)
 8048b28:	e8 93 f9 ff ff       	call   80484c0 <fflush@plt>
 8048b2d:	c7 44 24 08 08 00 00 	movl   $0x8,0x8(%esp)
 8048b34:	00 
 8048b35:	8d 45 ea             	lea    -0x16(%ebp),%eax
 8048b38:	89 44 24 04          	mov    %eax,0x4(%esp)
 8048b3c:	c7 04 24 00 00 00 00 	movl   $0x0,(%esp)
 8048b43:	e8 58 f9 ff ff       	call   80484a0 <read@plt>
 8048b48:	8b 45 dc             	mov    -0x24(%ebp),%eax
 8048b4b:	8b 1c 85 80 b0 04 08 	mov    0x804b080(,%eax,4),%ebx
 8048b52:	8d 45 ea             	lea    -0x16(%ebp),%eax
 8048b55:	89 04 24             	mov    %eax,(%esp)
 8048b58:	e8 03 fa ff ff       	call   8048560 <atoi@plt>
 8048b5d:	89 43 14             	mov    %eax,0x14(%ebx)
 8048b60:	c7 04 24 74 91 04 08 	movl   $0x8049174,(%esp)
 8048b67:	e8 44 f9 ff ff       	call   80484b0 <printf@plt>
 8048b6c:	a1 60 b0 04 08       	mov    0x804b060,%eax
 8048b71:	89 04 24             	mov    %eax,(%esp)
 8048b74:	e8 47 f9 ff ff       	call   80484c0 <fflush@plt>
 8048b79:	c7 44 24 08 08 00 00 	movl   $0x8,0x8(%esp)
 8048b80:	00 
 8048b81:	8d 45 ea             	lea    -0x16(%ebp),%eax
 8048b84:	89 44 24 04          	mov    %eax,0x4(%esp)
 8048b88:	c7 04 24 00 00 00 00 	movl   $0x0,(%esp)
 8048b8f:	e8 0c f9 ff ff       	call   80484a0 <read@plt>
 8048b94:	8d 45 ea             	lea    -0x16(%ebp),%eax
 8048b97:	89 04 24             	mov    %eax,(%esp)
 8048b9a:	e8 c1 f9 ff ff       	call   8048560 <atoi@plt>
 8048b9f:	89 45 e0             	mov    %eax,-0x20(%ebp)
 8048ba2:	8b 45 dc             	mov    -0x24(%ebp),%eax
 8048ba5:	8b 04 85 80 b0 04 08 	mov    0x804b080(,%eax,4),%eax
 8048bac:	8b 40 18             	mov    0x18(%eax),%eax
 8048baf:	89 45 e4             	mov    %eax,-0x1c(%ebp)
 8048bb2:	8b 45 e0             	mov    -0x20(%ebp),%eax
 8048bb5:	3b 45 e4             	cmp    -0x1c(%ebp),%eax
 8048bb8:	74 47                	je     8048c01 <editphd+0x1db>
 8048bba:	8b 55 e0             	mov    -0x20(%ebp),%edx
 8048bbd:	8b 45 dc             	mov    -0x24(%ebp),%eax
 8048bc0:	8b 04 85 80 b0 04 08 	mov    0x804b080(,%eax,4),%eax
 8048bc7:	8b 40 1c             	mov    0x1c(%eax),%eax
 8048bca:	89 54 24 04          	mov    %edx,0x4(%esp)
 8048bce:	89 04 24             	mov    %eax,(%esp)
 8048bd1:	e8 1a f9 ff ff       	call   80484f0 <realloc@plt>
 8048bd6:	89 45 d8             	mov    %eax,-0x28(%ebp)
 8048bd9:	83 7d d8 00          	cmpl   $0x0,-0x28(%ebp)
 8048bdd:	75 20                	jne    8048bff <editphd+0x1d9>
 8048bdf:	c7 04 24 98 91 04 08 	movl   $0x8049198,(%esp)
 8048be6:	e8 25 f9 ff ff       	call   8048510 <puts@plt>
 8048beb:	a1 60 b0 04 08       	mov    0x804b060,%eax
 8048bf0:	89 04 24             	mov    %eax,(%esp)
 8048bf3:	e8 c8 f8 ff ff       	call   80484c0 <fflush@plt>
 8048bf8:	b8 00 00 00 00       	mov    $0x0,%eax
 8048bfd:	eb 6a                	jmp    8048c69 <editphd+0x243>
 8048bff:	eb 10                	jmp    8048c11 <editphd+0x1eb>
 8048c01:	8b 45 dc             	mov    -0x24(%ebp),%eax
 8048c04:	8b 04 85 80 b0 04 08 	mov    0x804b080(,%eax,4),%eax
 8048c0b:	8b 40 1c             	mov    0x1c(%eax),%eax
 8048c0e:	89 45 d8             	mov    %eax,-0x28(%ebp)
 8048c11:	c7 04 24 a8 91 04 08 	movl   $0x80491a8,(%esp)
 8048c18:	e8 93 f8 ff ff       	call   80484b0 <printf@plt>
 8048c1d:	a1 60 b0 04 08       	mov    0x804b060,%eax
 8048c22:	89 04 24             	mov    %eax,(%esp)
 8048c25:	e8 96 f8 ff ff       	call   80484c0 <fflush@plt>
 8048c2a:	8b 45 e0             	mov    -0x20(%ebp),%eax
 8048c2d:	89 44 24 08          	mov    %eax,0x8(%esp)
 8048c31:	8b 45 d8             	mov    -0x28(%ebp),%eax
 8048c34:	89 44 24 04          	mov    %eax,0x4(%esp)
 8048c38:	c7 04 24 00 00 00 00 	movl   $0x0,(%esp)
 8048c3f:	e8 5c f8 ff ff       	call   80484a0 <read@plt>
 8048c44:	8b 45 dc             	mov    -0x24(%ebp),%eax
 8048c47:	8b 04 85 80 b0 04 08 	mov    0x804b080(,%eax,4),%eax
 8048c4e:	8b 55 d8             	mov    -0x28(%ebp),%edx
 8048c51:	89 50 1c             	mov    %edx,0x1c(%eax)
 8048c54:	8b 45 dc             	mov    -0x24(%ebp),%eax
 8048c57:	8b 04 85 80 b0 04 08 	mov    0x804b080(,%eax,4),%eax
 8048c5e:	8b 55 e0             	mov    -0x20(%ebp),%edx
 8048c61:	89 50 18             	mov    %edx,0x18(%eax)
 8048c64:	b8 01 00 00 00       	mov    $0x1,%eax
 8048c69:	8b 4d f4             	mov    -0xc(%ebp),%ecx
 8048c6c:	65 33 0d 14 00 00 00 	xor    %gs:0x14,%ecx
 8048c73:	74 05                	je     8048c7a <editphd+0x254>
 8048c75:	e8 66 f8 ff ff       	call   80484e0 <__stack_chk_fail@plt>
 8048c7a:	83 c4 34             	add    $0x34,%esp
 8048c7d:	5b                   	pop    %ebx
 8048c7e:	5d                   	pop    %ebp
 8048c7f:	c3                   	ret    

08048c80 <removephd>:
 8048c80:	55                   	push   %ebp
 8048c81:	89 e5                	mov    %esp,%ebp
 8048c83:	83 ec 38             	sub    $0x38,%esp
 8048c86:	65 a1 14 00 00 00    	mov    %gs:0x14,%eax
 8048c8c:	89 45 f4             	mov    %eax,-0xc(%ebp)
 8048c8f:	31 c0                	xor    %eax,%eax
 8048c91:	c7 04 24 00 8f 04 08 	movl   $0x8048f00,(%esp)
 8048c98:	e8 73 f8 ff ff       	call   8048510 <puts@plt>
 8048c9d:	c7 04 24 d0 91 04 08 	movl   $0x80491d0,(%esp)
 8048ca4:	e8 67 f8 ff ff       	call   8048510 <puts@plt>
 8048ca9:	a1 68 b0 04 08       	mov    0x804b068,%eax
 8048cae:	85 c0                	test   %eax,%eax
 8048cb0:	75 16                	jne    8048cc8 <removephd+0x48>
 8048cb2:	c7 04 24 35 91 04 08 	movl   $0x8049135,(%esp)
 8048cb9:	e8 52 f8 ff ff       	call   8048510 <puts@plt>
 8048cbe:	b8 00 00 00 00       	mov    $0x0,%eax
 8048cc3:	e9 c2 00 00 00       	jmp    8048d8a <removephd+0x10a>
 8048cc8:	c7 04 24 50 91 04 08 	movl   $0x8049150,(%esp)
 8048ccf:	e8 dc f7 ff ff       	call   80484b0 <printf@plt>
 8048cd4:	a1 60 b0 04 08       	mov    0x804b060,%eax
 8048cd9:	89 04 24             	mov    %eax,(%esp)
 8048cdc:	e8 df f7 ff ff       	call   80484c0 <fflush@plt>
 8048ce1:	c7 44 24 08 08 00 00 	movl   $0x8,0x8(%esp)
 8048ce8:	00 
 8048ce9:	8d 45 ea             	lea    -0x16(%ebp),%eax
 8048cec:	89 44 24 04          	mov    %eax,0x4(%esp)
 8048cf0:	c7 04 24 00 00 00 00 	movl   $0x0,(%esp)
 8048cf7:	e8 a4 f7 ff ff       	call   80484a0 <read@plt>
 8048cfc:	8d 45 ea             	lea    -0x16(%ebp),%eax
 8048cff:	89 04 24             	mov    %eax,(%esp)
 8048d02:	e8 59 f8 ff ff       	call   8048560 <atoi@plt>
 8048d07:	89 45 e4             	mov    %eax,-0x1c(%ebp)
 8048d0a:	83 7d e4 63          	cmpl   $0x63,-0x1c(%ebp)
 8048d0e:	7f 14                	jg     8048d24 <removephd+0xa4>
 8048d10:	83 7d e4 00          	cmpl   $0x0,-0x1c(%ebp)
 8048d14:	78 0e                	js     8048d24 <removephd+0xa4>
 8048d16:	8b 45 e4             	mov    -0x1c(%ebp),%eax
 8048d19:	8b 04 85 80 b0 04 08 	mov    0x804b080(,%eax,4),%eax
 8048d20:	85 c0                	test   %eax,%eax
 8048d22:	75 13                	jne    8048d37 <removephd+0xb7>
 8048d24:	c7 04 24 ef 90 04 08 	movl   $0x80490ef,(%esp)
 8048d2b:	e8 e0 f7 ff ff       	call   8048510 <puts@plt>
 8048d30:	b8 00 00 00 00       	mov    $0x0,%eax
 8048d35:	eb 53                	jmp    8048d8a <removephd+0x10a>
 8048d37:	8b 45 e4             	mov    -0x1c(%ebp),%eax
 8048d3a:	8b 04 85 80 b0 04 08 	mov    0x804b080(,%eax,4),%eax
 8048d41:	8b 40 1c             	mov    0x1c(%eax),%eax
 8048d44:	89 04 24             	mov    %eax,(%esp)
 8048d47:	e8 84 f7 ff ff       	call   80484d0 <free@plt>
 8048d4c:	8b 45 e4             	mov    -0x1c(%ebp),%eax
 8048d4f:	8b 04 85 80 b0 04 08 	mov    0x804b080(,%eax,4),%eax
 8048d56:	89 04 24             	mov    %eax,(%esp)
 8048d59:	e8 72 f7 ff ff       	call   80484d0 <free@plt>
 8048d5e:	8b 45 e4             	mov    -0x1c(%ebp),%eax
 8048d61:	c7 04 85 80 b0 04 08 	movl   $0x0,0x804b080(,%eax,4)
 8048d68:	00 00 00 00 
 8048d6c:	a1 68 b0 04 08       	mov    0x804b068,%eax
 8048d71:	83 e8 01             	sub    $0x1,%eax
 8048d74:	a3 68 b0 04 08       	mov    %eax,0x804b068
 8048d79:	c7 04 24 75 90 04 08 	movl   $0x8049075,(%esp)
 8048d80:	e8 8b f7 ff ff       	call   8048510 <puts@plt>
 8048d85:	b8 01 00 00 00       	mov    $0x1,%eax
 8048d8a:	8b 55 f4             	mov    -0xc(%ebp),%edx
 8048d8d:	65 33 15 14 00 00 00 	xor    %gs:0x14,%edx
 8048d94:	74 05                	je     8048d9b <removephd+0x11b>
 8048d96:	e8 45 f7 ff ff       	call   80484e0 <__stack_chk_fail@plt>
 8048d9b:	c9                   	leave  
 8048d9c:	c3                   	ret    

08048d9d <main>:
 8048d9d:	55                   	push   %ebp
 8048d9e:	89 e5                	mov    %esp,%ebp
 8048da0:	83 e4 f0             	and    $0xfffffff0,%esp
 8048da3:	83 ec 30             	sub    $0x30,%esp
 8048da6:	65 a1 14 00 00 00    	mov    %gs:0x14,%eax
 8048dac:	89 44 24 2c          	mov    %eax,0x2c(%esp)
 8048db0:	31 c0                	xor    %eax,%eax
 8048db2:	e8 b6 f8 ff ff       	call   804866d <menu>
 8048db7:	c7 44 24 08 08 00 00 	movl   $0x8,0x8(%esp)
 8048dbe:	00 
 8048dbf:	8d 44 24 22          	lea    0x22(%esp),%eax
 8048dc3:	89 44 24 04          	mov    %eax,0x4(%esp)
 8048dc7:	c7 04 24 00 00 00 00 	movl   $0x0,(%esp)
 8048dce:	e8 cd f6 ff ff       	call   80484a0 <read@plt>
 8048dd3:	8d 44 24 22          	lea    0x22(%esp),%eax
 8048dd7:	89 04 24             	mov    %eax,(%esp)
 8048dda:	e8 81 f7 ff ff       	call   8048560 <atoi@plt>
 8048ddf:	89 44 24 1c          	mov    %eax,0x1c(%esp)
 8048de3:	83 7c 24 1c 05       	cmpl   $0x5,0x1c(%esp)
 8048de8:	77 5d                	ja     8048e47 <main+0xaa>
 8048dea:	8b 44 24 1c          	mov    0x1c(%esp),%eax
 8048dee:	c1 e0 02             	shl    $0x2,%eax
 8048df1:	05 28 92 04 08       	add    $0x8049228,%eax
 8048df6:	8b 00                	mov    (%eax),%eax
 8048df8:	ff e0                	jmp    *%eax
 8048dfa:	e8 e9 fa ff ff       	call   80488e8 <dumpphd>
 8048dff:	eb 60                	jmp    8048e61 <main+0xc4>
 8048e01:	e8 e8 f8 ff ff       	call   80486ee <addphd>
 8048e06:	eb 59                	jmp    8048e61 <main+0xc4>
 8048e08:	e8 19 fc ff ff       	call   8048a26 <editphd>
 8048e0d:	eb 52                	jmp    8048e61 <main+0xc4>
 8048e0f:	e8 6c fe ff ff       	call   8048c80 <removephd>
 8048e14:	eb 4b                	jmp    8048e61 <main+0xc4>
 8048e16:	c7 04 24 f3 91 04 08 	movl   $0x80491f3,(%esp)
 8048e1d:	e8 ee f6 ff ff       	call   8048510 <puts@plt>
 8048e22:	c7 04 24 08 92 04 08 	movl   $0x8049208,(%esp)
 8048e29:	e8 e2 f6 ff ff       	call   8048510 <puts@plt>
 8048e2e:	a1 60 b0 04 08       	mov    0x804b060,%eax
 8048e33:	89 04 24             	mov    %eax,(%esp)
 8048e36:	e8 85 f6 ff ff       	call   80484c0 <fflush@plt>
 8048e3b:	c7 04 24 00 00 00 00 	movl   $0x0,(%esp)
 8048e42:	e8 e9 f6 ff ff       	call   8048530 <exit@plt>
 8048e47:	c7 04 24 19 92 04 08 	movl   $0x8049219,(%esp)
 8048e4e:	e8 bd f6 ff ff       	call   8048510 <puts@plt>
 8048e53:	a1 60 b0 04 08       	mov    0x804b060,%eax
 8048e58:	89 04 24             	mov    %eax,(%esp)
 8048e5b:	e8 60 f6 ff ff       	call   80484c0 <fflush@plt>
 8048e60:	90                   	nop
 8048e61:	e9 4c ff ff ff       	jmp    8048db2 <main+0x15>
 8048e66:	66 90                	xchg   %ax,%ax
 8048e68:	66 90                	xchg   %ax,%ax
 8048e6a:	66 90                	xchg   %ax,%ax
 8048e6c:	66 90                	xchg   %ax,%ax
 8048e6e:	66 90                	xchg   %ax,%ax

08048e70 <__libc_csu_init>:
 8048e70:	55                   	push   %ebp
 8048e71:	57                   	push   %edi
 8048e72:	31 ff                	xor    %edi,%edi
 8048e74:	56                   	push   %esi
 8048e75:	53                   	push   %ebx
 8048e76:	e8 25 f7 ff ff       	call   80485a0 <__x86.get_pc_thunk.bx>
 8048e7b:	81 c3 85 21 00 00    	add    $0x2185,%ebx
 8048e81:	83 ec 1c             	sub    $0x1c,%esp
 8048e84:	8b 6c 24 30          	mov    0x30(%esp),%ebp
 8048e88:	8d b3 0c ff ff ff    	lea    -0xf4(%ebx),%esi
 8048e8e:	e8 cd f5 ff ff       	call   8048460 <_init>
 8048e93:	8d 83 08 ff ff ff    	lea    -0xf8(%ebx),%eax
 8048e99:	29 c6                	sub    %eax,%esi
 8048e9b:	c1 fe 02             	sar    $0x2,%esi
 8048e9e:	85 f6                	test   %esi,%esi
 8048ea0:	74 27                	je     8048ec9 <__libc_csu_init+0x59>
 8048ea2:	8d b6 00 00 00 00    	lea    0x0(%esi),%esi
 8048ea8:	8b 44 24 38          	mov    0x38(%esp),%eax
 8048eac:	89 2c 24             	mov    %ebp,(%esp)
 8048eaf:	89 44 24 08          	mov    %eax,0x8(%esp)
 8048eb3:	8b 44 24 34          	mov    0x34(%esp),%eax
 8048eb7:	89 44 24 04          	mov    %eax,0x4(%esp)
 8048ebb:	ff 94 bb 08 ff ff ff 	call   *-0xf8(%ebx,%edi,4)
 8048ec2:	83 c7 01             	add    $0x1,%edi
 8048ec5:	39 f7                	cmp    %esi,%edi
 8048ec7:	75 df                	jne    8048ea8 <__libc_csu_init+0x38>
 8048ec9:	83 c4 1c             	add    $0x1c,%esp
 8048ecc:	5b                   	pop    %ebx
 8048ecd:	5e                   	pop    %esi
 8048ece:	5f                   	pop    %edi
 8048ecf:	5d                   	pop    %ebp
 8048ed0:	c3                   	ret    
 8048ed1:	eb 0d                	jmp    8048ee0 <__libc_csu_fini>
 8048ed3:	90                   	nop
 8048ed4:	90                   	nop
 8048ed5:	90                   	nop
 8048ed6:	90                   	nop
 8048ed7:	90                   	nop
 8048ed8:	90                   	nop
 8048ed9:	90                   	nop
 8048eda:	90                   	nop
 8048edb:	90                   	nop
 8048edc:	90                   	nop
 8048edd:	90                   	nop
 8048ede:	90                   	nop
 8048edf:	90                   	nop

08048ee0 <__libc_csu_fini>:
 8048ee0:	f3 c3                	repz ret 

Disassembly of section .fini:

08048ee4 <_fini>:
 8048ee4:	53                   	push   %ebx
 8048ee5:	83 ec 08             	sub    $0x8,%esp
 8048ee8:	e8 b3 f6 ff ff       	call   80485a0 <__x86.get_pc_thunk.bx>
 8048eed:	81 c3 13 21 00 00    	add    $0x2113,%ebx
 8048ef3:	83 c4 08             	add    $0x8,%esp
 8048ef6:	5b                   	pop    %ebx
 8048ef7:	c3                   	ret    
