
ret2lib_easy:     file format elf32-i386


Disassembly of section .init:

08048378 <_init>:
 8048378:	53                   	push   %ebx
 8048379:	83 ec 08             	sub    $0x8,%esp
 804837c:	e8 df 00 00 00       	call   8048460 <__x86.get_pc_thunk.bx>
 8048381:	81 c3 7f 1c 00 00    	add    $0x1c7f,%ebx
 8048387:	8b 83 fc ff ff ff    	mov    -0x4(%ebx),%eax
 804838d:	85 c0                	test   %eax,%eax
 804838f:	74 05                	je     8048396 <_init+0x1e>
 8048391:	e8 6a 00 00 00       	call   8048400 <__gmon_start__@plt>
 8048396:	83 c4 08             	add    $0x8,%esp
 8048399:	5b                   	pop    %ebx
 804839a:	c3                   	ret    

Disassembly of section .plt:

080483a0 <read@plt-0x10>:
 80483a0:	ff 35 04 a0 04 08    	pushl  0x804a004
 80483a6:	ff 25 08 a0 04 08    	jmp    *0x804a008
 80483ac:	00 00                	add    %al,(%eax)
	...

080483b0 <read@plt>:
 80483b0:	ff 25 0c a0 04 08    	jmp    *0x804a00c
 80483b6:	68 00 00 00 00       	push   $0x0
 80483bb:	e9 e0 ff ff ff       	jmp    80483a0 <_init+0x28>

080483c0 <printf@plt>:
 80483c0:	ff 25 10 a0 04 08    	jmp    *0x804a010
 80483c6:	68 08 00 00 00       	push   $0x8
 80483cb:	e9 d0 ff ff ff       	jmp    80483a0 <_init+0x28>

080483d0 <fflush@plt>:
 80483d0:	ff 25 14 a0 04 08    	jmp    *0x804a014
 80483d6:	68 10 00 00 00       	push   $0x10
 80483db:	e9 c0 ff ff ff       	jmp    80483a0 <_init+0x28>

080483e0 <strcpy@plt>:
 80483e0:	ff 25 18 a0 04 08    	jmp    *0x804a018
 80483e6:	68 18 00 00 00       	push   $0x18
 80483eb:	e9 b0 ff ff ff       	jmp    80483a0 <_init+0x28>

080483f0 <puts@plt>:
 80483f0:	ff 25 1c a0 04 08    	jmp    *0x804a01c
 80483f6:	68 20 00 00 00       	push   $0x20
 80483fb:	e9 a0 ff ff ff       	jmp    80483a0 <_init+0x28>

08048400 <__gmon_start__@plt>:
 8048400:	ff 25 20 a0 04 08    	jmp    *0x804a020
 8048406:	68 28 00 00 00       	push   $0x28
 804840b:	e9 90 ff ff ff       	jmp    80483a0 <_init+0x28>

08048410 <__libc_start_main@plt>:
 8048410:	ff 25 24 a0 04 08    	jmp    *0x804a024
 8048416:	68 30 00 00 00       	push   $0x30
 804841b:	e9 80 ff ff ff       	jmp    80483a0 <_init+0x28>

08048420 <strtol@plt>:
 8048420:	ff 25 28 a0 04 08    	jmp    *0x804a028
 8048426:	68 38 00 00 00       	push   $0x38
 804842b:	e9 70 ff ff ff       	jmp    80483a0 <_init+0x28>

Disassembly of section .text:

08048430 <_start>:
 8048430:	31 ed                	xor    %ebp,%ebp
 8048432:	5e                   	pop    %esi
 8048433:	89 e1                	mov    %esp,%ecx
 8048435:	83 e4 f0             	and    $0xfffffff0,%esp
 8048438:	50                   	push   %eax
 8048439:	54                   	push   %esp
 804843a:	52                   	push   %edx
 804843b:	68 e0 86 04 08       	push   $0x80486e0
 8048440:	68 70 86 04 08       	push   $0x8048670
 8048445:	51                   	push   %ecx
 8048446:	56                   	push   %esi
 8048447:	68 7d 85 04 08       	push   $0x804857d
 804844c:	e8 bf ff ff ff       	call   8048410 <__libc_start_main@plt>
 8048451:	f4                   	hlt    
 8048452:	66 90                	xchg   %ax,%ax
 8048454:	66 90                	xchg   %ax,%ax
 8048456:	66 90                	xchg   %ax,%ax
 8048458:	66 90                	xchg   %ax,%ax
 804845a:	66 90                	xchg   %ax,%ax
 804845c:	66 90                	xchg   %ax,%ax
 804845e:	66 90                	xchg   %ax,%ax

08048460 <__x86.get_pc_thunk.bx>:
 8048460:	8b 1c 24             	mov    (%esp),%ebx
 8048463:	c3                   	ret    
 8048464:	66 90                	xchg   %ax,%ax
 8048466:	66 90                	xchg   %ax,%ax
 8048468:	66 90                	xchg   %ax,%ax
 804846a:	66 90                	xchg   %ax,%ax
 804846c:	66 90                	xchg   %ax,%ax
 804846e:	66 90                	xchg   %ax,%ax

08048470 <deregister_tm_clones>:
 8048470:	b8 37 a0 04 08       	mov    $0x804a037,%eax
 8048475:	2d 34 a0 04 08       	sub    $0x804a034,%eax
 804847a:	83 f8 06             	cmp    $0x6,%eax
 804847d:	77 01                	ja     8048480 <deregister_tm_clones+0x10>
 804847f:	c3                   	ret    
 8048480:	b8 00 00 00 00       	mov    $0x0,%eax
 8048485:	85 c0                	test   %eax,%eax
 8048487:	74 f6                	je     804847f <deregister_tm_clones+0xf>
 8048489:	55                   	push   %ebp
 804848a:	89 e5                	mov    %esp,%ebp
 804848c:	83 ec 18             	sub    $0x18,%esp
 804848f:	c7 04 24 34 a0 04 08 	movl   $0x804a034,(%esp)
 8048496:	ff d0                	call   *%eax
 8048498:	c9                   	leave  
 8048499:	c3                   	ret    
 804849a:	8d b6 00 00 00 00    	lea    0x0(%esi),%esi

080484a0 <register_tm_clones>:
 80484a0:	b8 34 a0 04 08       	mov    $0x804a034,%eax
 80484a5:	2d 34 a0 04 08       	sub    $0x804a034,%eax
 80484aa:	c1 f8 02             	sar    $0x2,%eax
 80484ad:	89 c2                	mov    %eax,%edx
 80484af:	c1 ea 1f             	shr    $0x1f,%edx
 80484b2:	01 d0                	add    %edx,%eax
 80484b4:	d1 f8                	sar    %eax
 80484b6:	75 01                	jne    80484b9 <register_tm_clones+0x19>
 80484b8:	c3                   	ret    
 80484b9:	ba 00 00 00 00       	mov    $0x0,%edx
 80484be:	85 d2                	test   %edx,%edx
 80484c0:	74 f6                	je     80484b8 <register_tm_clones+0x18>
 80484c2:	55                   	push   %ebp
 80484c3:	89 e5                	mov    %esp,%ebp
 80484c5:	83 ec 18             	sub    $0x18,%esp
 80484c8:	89 44 24 04          	mov    %eax,0x4(%esp)
 80484cc:	c7 04 24 34 a0 04 08 	movl   $0x804a034,(%esp)
 80484d3:	ff d2                	call   *%edx
 80484d5:	c9                   	leave  
 80484d6:	c3                   	ret    
 80484d7:	89 f6                	mov    %esi,%esi
 80484d9:	8d bc 27 00 00 00 00 	lea    0x0(%edi,%eiz,1),%edi

080484e0 <__do_global_dtors_aux>:
 80484e0:	80 3d 44 a0 04 08 00 	cmpb   $0x0,0x804a044
 80484e7:	75 13                	jne    80484fc <__do_global_dtors_aux+0x1c>
 80484e9:	55                   	push   %ebp
 80484ea:	89 e5                	mov    %esp,%ebp
 80484ec:	83 ec 08             	sub    $0x8,%esp
 80484ef:	e8 7c ff ff ff       	call   8048470 <deregister_tm_clones>
 80484f4:	c6 05 44 a0 04 08 01 	movb   $0x1,0x804a044
 80484fb:	c9                   	leave  
 80484fc:	f3 c3                	repz ret 
 80484fe:	66 90                	xchg   %ax,%ax

08048500 <frame_dummy>:
 8048500:	a1 10 9f 04 08       	mov    0x8049f10,%eax
 8048505:	85 c0                	test   %eax,%eax
 8048507:	74 1f                	je     8048528 <frame_dummy+0x28>
 8048509:	b8 00 00 00 00       	mov    $0x0,%eax
 804850e:	85 c0                	test   %eax,%eax
 8048510:	74 16                	je     8048528 <frame_dummy+0x28>
 8048512:	55                   	push   %ebp
 8048513:	89 e5                	mov    %esp,%ebp
 8048515:	83 ec 18             	sub    $0x18,%esp
 8048518:	c7 04 24 10 9f 04 08 	movl   $0x8049f10,(%esp)
 804851f:	ff d0                	call   *%eax
 8048521:	c9                   	leave  
 8048522:	e9 79 ff ff ff       	jmp    80484a0 <register_tm_clones>
 8048527:	90                   	nop
 8048528:	e9 73 ff ff ff       	jmp    80484a0 <register_tm_clones>

0804852d <See_something>:
 804852d:	55                   	push   %ebp
 804852e:	89 e5                	mov    %esp,%ebp
 8048530:	83 ec 28             	sub    $0x28,%esp
 8048533:	8b 45 08             	mov    0x8(%ebp),%eax
 8048536:	89 45 f4             	mov    %eax,-0xc(%ebp)
 8048539:	8b 45 f4             	mov    -0xc(%ebp),%eax
 804853c:	8b 00                	mov    (%eax),%eax
 804853e:	89 44 24 04          	mov    %eax,0x4(%esp)
 8048542:	c7 04 24 00 87 04 08 	movl   $0x8048700,(%esp)
 8048549:	e8 72 fe ff ff       	call   80483c0 <printf@plt>
 804854e:	c9                   	leave  
 804854f:	c3                   	ret    

08048550 <Print_message>:
 8048550:	55                   	push   %ebp
 8048551:	89 e5                	mov    %esp,%ebp
 8048553:	83 ec 48             	sub    $0x48,%esp
 8048556:	8b 45 08             	mov    0x8(%ebp),%eax
 8048559:	89 44 24 04          	mov    %eax,0x4(%esp)
 804855d:	8d 45 c8             	lea    -0x38(%ebp),%eax
 8048560:	89 04 24             	mov    %eax,(%esp)
 8048563:	e8 78 fe ff ff       	call   80483e0 <strcpy@plt>
 8048568:	8d 45 c8             	lea    -0x38(%ebp),%eax
 804856b:	89 44 24 04          	mov    %eax,0x4(%esp)
 804856f:	c7 04 24 21 87 04 08 	movl   $0x8048721,(%esp)
 8048576:	e8 45 fe ff ff       	call   80483c0 <printf@plt>
 804857b:	c9                   	leave  
 804857c:	c3                   	ret    

0804857d <main>:
 804857d:	55                   	push   %ebp
 804857e:	89 e5                	mov    %esp,%ebp
 8048580:	83 e4 f0             	and    $0xfffffff0,%esp
 8048583:	81 ec 20 01 00 00    	sub    $0x120,%esp
 8048589:	c7 04 24 38 87 04 08 	movl   $0x8048738,(%esp)
 8048590:	e8 5b fe ff ff       	call   80483f0 <puts@plt>
 8048595:	c7 04 24 58 87 04 08 	movl   $0x8048758,(%esp)
 804859c:	e8 4f fe ff ff       	call   80483f0 <puts@plt>
 80485a1:	c7 04 24 38 87 04 08 	movl   $0x8048738,(%esp)
 80485a8:	e8 43 fe ff ff       	call   80483f0 <puts@plt>
 80485ad:	c7 04 24 78 87 04 08 	movl   $0x8048778,(%esp)
 80485b4:	e8 37 fe ff ff       	call   80483f0 <puts@plt>
 80485b9:	c7 04 24 9b 87 04 08 	movl   $0x804879b,(%esp)
 80485c0:	e8 fb fd ff ff       	call   80483c0 <printf@plt>
 80485c5:	a1 40 a0 04 08       	mov    0x804a040,%eax
 80485ca:	89 04 24             	mov    %eax,(%esp)
 80485cd:	e8 fe fd ff ff       	call   80483d0 <fflush@plt>
 80485d2:	c7 44 24 08 0a 00 00 	movl   $0xa,0x8(%esp)
 80485d9:	00 
 80485da:	8d 84 24 12 01 00 00 	lea    0x112(%esp),%eax
 80485e1:	89 44 24 04          	mov    %eax,0x4(%esp)
 80485e5:	c7 04 24 00 00 00 00 	movl   $0x0,(%esp)
 80485ec:	e8 bf fd ff ff       	call   80483b0 <read@plt>
 80485f1:	8d 84 24 12 01 00 00 	lea    0x112(%esp),%eax
 80485f8:	89 04 24             	mov    %eax,(%esp)
 80485fb:	e8 20 fe ff ff       	call   8048420 <strtol@plt>
 8048600:	89 84 24 1c 01 00 00 	mov    %eax,0x11c(%esp)
 8048607:	8b 84 24 1c 01 00 00 	mov    0x11c(%esp),%eax
 804860e:	89 04 24             	mov    %eax,(%esp)
 8048611:	e8 17 ff ff ff       	call   804852d <See_something>
 8048616:	c7 04 24 b9 87 04 08 	movl   $0x80487b9,(%esp)
 804861d:	e8 9e fd ff ff       	call   80483c0 <printf@plt>
 8048622:	a1 40 a0 04 08       	mov    0x804a040,%eax
 8048627:	89 04 24             	mov    %eax,(%esp)
 804862a:	e8 a1 fd ff ff       	call   80483d0 <fflush@plt>
 804862f:	c7 44 24 08 00 01 00 	movl   $0x100,0x8(%esp)
 8048636:	00 
 8048637:	8d 44 24 12          	lea    0x12(%esp),%eax
 804863b:	89 44 24 04          	mov    %eax,0x4(%esp)
 804863f:	c7 04 24 00 00 00 00 	movl   $0x0,(%esp)
 8048646:	e8 65 fd ff ff       	call   80483b0 <read@plt>
 804864b:	8d 44 24 12          	lea    0x12(%esp),%eax
 804864f:	89 04 24             	mov    %eax,(%esp)
 8048652:	e8 f9 fe ff ff       	call   8048550 <Print_message>
 8048657:	c7 04 24 d5 87 04 08 	movl   $0x80487d5,(%esp)
 804865e:	e8 8d fd ff ff       	call   80483f0 <puts@plt>
 8048663:	b8 00 00 00 00       	mov    $0x0,%eax
 8048668:	c9                   	leave  
 8048669:	c3                   	ret    
 804866a:	66 90                	xchg   %ax,%ax
 804866c:	66 90                	xchg   %ax,%ax
 804866e:	66 90                	xchg   %ax,%ax

08048670 <__libc_csu_init>:
 8048670:	55                   	push   %ebp
 8048671:	57                   	push   %edi
 8048672:	31 ff                	xor    %edi,%edi
 8048674:	56                   	push   %esi
 8048675:	53                   	push   %ebx
 8048676:	e8 e5 fd ff ff       	call   8048460 <__x86.get_pc_thunk.bx>
 804867b:	81 c3 85 19 00 00    	add    $0x1985,%ebx
 8048681:	83 ec 1c             	sub    $0x1c,%esp
 8048684:	8b 6c 24 30          	mov    0x30(%esp),%ebp
 8048688:	8d b3 0c ff ff ff    	lea    -0xf4(%ebx),%esi
 804868e:	e8 e5 fc ff ff       	call   8048378 <_init>
 8048693:	8d 83 08 ff ff ff    	lea    -0xf8(%ebx),%eax
 8048699:	29 c6                	sub    %eax,%esi
 804869b:	c1 fe 02             	sar    $0x2,%esi
 804869e:	85 f6                	test   %esi,%esi
 80486a0:	74 27                	je     80486c9 <__libc_csu_init+0x59>
 80486a2:	8d b6 00 00 00 00    	lea    0x0(%esi),%esi
 80486a8:	8b 44 24 38          	mov    0x38(%esp),%eax
 80486ac:	89 2c 24             	mov    %ebp,(%esp)
 80486af:	89 44 24 08          	mov    %eax,0x8(%esp)
 80486b3:	8b 44 24 34          	mov    0x34(%esp),%eax
 80486b7:	89 44 24 04          	mov    %eax,0x4(%esp)
 80486bb:	ff 94 bb 08 ff ff ff 	call   *-0xf8(%ebx,%edi,4)
 80486c2:	83 c7 01             	add    $0x1,%edi
 80486c5:	39 f7                	cmp    %esi,%edi
 80486c7:	75 df                	jne    80486a8 <__libc_csu_init+0x38>
 80486c9:	83 c4 1c             	add    $0x1c,%esp
 80486cc:	5b                   	pop    %ebx
 80486cd:	5e                   	pop    %esi
 80486ce:	5f                   	pop    %edi
 80486cf:	5d                   	pop    %ebp
 80486d0:	c3                   	ret    
 80486d1:	eb 0d                	jmp    80486e0 <__libc_csu_fini>
 80486d3:	90                   	nop
 80486d4:	90                   	nop
 80486d5:	90                   	nop
 80486d6:	90                   	nop
 80486d7:	90                   	nop
 80486d8:	90                   	nop
 80486d9:	90                   	nop
 80486da:	90                   	nop
 80486db:	90                   	nop
 80486dc:	90                   	nop
 80486dd:	90                   	nop
 80486de:	90                   	nop
 80486df:	90                   	nop

080486e0 <__libc_csu_fini>:
 80486e0:	f3 c3                	repz ret 

Disassembly of section .fini:

080486e4 <_fini>:
 80486e4:	53                   	push   %ebx
 80486e5:	83 ec 08             	sub    $0x8,%esp
 80486e8:	e8 73 fd ff ff       	call   8048460 <__x86.get_pc_thunk.bx>
 80486ed:	81 c3 13 19 00 00    	add    $0x1913,%ebx
 80486f3:	83 c4 08             	add    $0x8,%esp
 80486f6:	5b                   	pop    %ebx
 80486f7:	c3                   	ret    
