
./secretgarden:     file format elf64-x86-64


Disassembly of section .init:

0000000000400708 <.init>:
  400708:	48 83 ec 08          	sub    $0x8,%rsp
  40070c:	48 8b 05 e5 18 20 00 	mov    0x2018e5(%rip),%rax        # 601ff8 <exit@plt+0x2017d8>
  400713:	48 85 c0             	test   %rax,%rax
  400716:	74 05                	je     40071d <free@plt-0x23>
  400718:	e8 b3 00 00 00       	callq  4007d0 <__gmon_start__@plt>
  40071d:	48 83 c4 08          	add    $0x8,%rsp
  400721:	c3                   	retq   

Disassembly of section .plt:

0000000000400730 <free@plt-0x10>:
  400730:	ff 35 d2 18 20 00    	pushq  0x2018d2(%rip)        # 602008 <exit@plt+0x2017e8>
  400736:	ff 25 d4 18 20 00    	jmpq   *0x2018d4(%rip)        # 602010 <exit@plt+0x2017f0>
  40073c:	0f 1f 40 00          	nopl   0x0(%rax)

0000000000400740 <free@plt>:
  400740:	ff 25 d2 18 20 00    	jmpq   *0x2018d2(%rip)        # 602018 <exit@plt+0x2017f8>
  400746:	68 00 00 00 00       	pushq  $0x0
  40074b:	e9 e0 ff ff ff       	jmpq   400730 <free@plt-0x10>

0000000000400750 <puts@plt>:
  400750:	ff 25 ca 18 20 00    	jmpq   *0x2018ca(%rip)        # 602020 <exit@plt+0x201800>
  400756:	68 01 00 00 00       	pushq  $0x1
  40075b:	e9 d0 ff ff ff       	jmpq   400730 <free@plt-0x10>

0000000000400760 <__stack_chk_fail@plt>:
  400760:	ff 25 c2 18 20 00    	jmpq   *0x2018c2(%rip)        # 602028 <exit@plt+0x201808>
  400766:	68 02 00 00 00       	pushq  $0x2
  40076b:	e9 c0 ff ff ff       	jmpq   400730 <free@plt-0x10>

0000000000400770 <printf@plt>:
  400770:	ff 25 ba 18 20 00    	jmpq   *0x2018ba(%rip)        # 602030 <exit@plt+0x201810>
  400776:	68 03 00 00 00       	pushq  $0x3
  40077b:	e9 b0 ff ff ff       	jmpq   400730 <free@plt-0x10>

0000000000400780 <memset@plt>:
  400780:	ff 25 b2 18 20 00    	jmpq   *0x2018b2(%rip)        # 602038 <exit@plt+0x201818>
  400786:	68 04 00 00 00       	pushq  $0x4
  40078b:	e9 a0 ff ff ff       	jmpq   400730 <free@plt-0x10>

0000000000400790 <alarm@plt>:
  400790:	ff 25 aa 18 20 00    	jmpq   *0x2018aa(%rip)        # 602040 <exit@plt+0x201820>
  400796:	68 05 00 00 00       	pushq  $0x5
  40079b:	e9 90 ff ff ff       	jmpq   400730 <free@plt-0x10>

00000000004007a0 <read@plt>:
  4007a0:	ff 25 a2 18 20 00    	jmpq   *0x2018a2(%rip)        # 602048 <exit@plt+0x201828>
  4007a6:	68 06 00 00 00       	pushq  $0x6
  4007ab:	e9 80 ff ff ff       	jmpq   400730 <free@plt-0x10>

00000000004007b0 <__libc_start_main@plt>:
  4007b0:	ff 25 9a 18 20 00    	jmpq   *0x20189a(%rip)        # 602050 <exit@plt+0x201830>
  4007b6:	68 07 00 00 00       	pushq  $0x7
  4007bb:	e9 70 ff ff ff       	jmpq   400730 <free@plt-0x10>

00000000004007c0 <signal@plt>:
  4007c0:	ff 25 92 18 20 00    	jmpq   *0x201892(%rip)        # 602058 <exit@plt+0x201838>
  4007c6:	68 08 00 00 00       	pushq  $0x8
  4007cb:	e9 60 ff ff ff       	jmpq   400730 <free@plt-0x10>

00000000004007d0 <__gmon_start__@plt>:
  4007d0:	ff 25 8a 18 20 00    	jmpq   *0x20188a(%rip)        # 602060 <exit@plt+0x201840>
  4007d6:	68 09 00 00 00       	pushq  $0x9
  4007db:	e9 50 ff ff ff       	jmpq   400730 <free@plt-0x10>

00000000004007e0 <malloc@plt>:
  4007e0:	ff 25 82 18 20 00    	jmpq   *0x201882(%rip)        # 602068 <exit@plt+0x201848>
  4007e6:	68 0a 00 00 00       	pushq  $0xa
  4007eb:	e9 40 ff ff ff       	jmpq   400730 <free@plt-0x10>

00000000004007f0 <setvbuf@plt>:
  4007f0:	ff 25 7a 18 20 00    	jmpq   *0x20187a(%rip)        # 602070 <exit@plt+0x201850>
  4007f6:	68 0b 00 00 00       	pushq  $0xb
  4007fb:	e9 30 ff ff ff       	jmpq   400730 <free@plt-0x10>

0000000000400800 <atoi@plt>:
  400800:	ff 25 72 18 20 00    	jmpq   *0x201872(%rip)        # 602078 <exit@plt+0x201858>
  400806:	68 0c 00 00 00       	pushq  $0xc
  40080b:	e9 20 ff ff ff       	jmpq   400730 <free@plt-0x10>

0000000000400810 <__isoc99_scanf@plt>:
  400810:	ff 25 6a 18 20 00    	jmpq   *0x20186a(%rip)        # 602080 <exit@plt+0x201860>
  400816:	68 0d 00 00 00       	pushq  $0xd
  40081b:	e9 10 ff ff ff       	jmpq   400730 <free@plt-0x10>

0000000000400820 <exit@plt>:
  400820:	ff 25 62 18 20 00    	jmpq   *0x201862(%rip)        # 602088 <exit@plt+0x201868>
  400826:	68 0e 00 00 00       	pushq  $0xe
  40082b:	e9 00 ff ff ff       	jmpq   400730 <free@plt-0x10>

Disassembly of section .text:

0000000000400830 <.text>:
  400830:	31 ed                	xor    %ebp,%ebp
  400832:	49 89 d1             	mov    %rdx,%r9
  400835:	5e                   	pop    %rsi
  400836:	48 89 e2             	mov    %rsp,%rdx
  400839:	48 83 e4 f0          	and    $0xfffffffffffffff0,%rsp
  40083d:	50                   	push   %rax
  40083e:	54                   	push   %rsp
  40083f:	49 c7 c0 40 0f 40 00 	mov    $0x400f40,%r8
  400846:	48 c7 c1 d0 0e 40 00 	mov    $0x400ed0,%rcx
  40084d:	48 c7 c7 12 0e 40 00 	mov    $0x400e12,%rdi
  400854:	e8 57 ff ff ff       	callq  4007b0 <__libc_start_main@plt>
  400859:	f4                   	hlt    
  40085a:	66 0f 1f 44 00 00    	nopw   0x0(%rax,%rax,1)
  400860:	b8 a7 20 60 00       	mov    $0x6020a7,%eax
  400865:	55                   	push   %rbp
  400866:	48 2d a0 20 60 00    	sub    $0x6020a0,%rax
  40086c:	48 83 f8 0e          	cmp    $0xe,%rax
  400870:	48 89 e5             	mov    %rsp,%rbp
  400873:	77 02                	ja     400877 <exit@plt+0x57>
  400875:	5d                   	pop    %rbp
  400876:	c3                   	retq   
  400877:	b8 00 00 00 00       	mov    $0x0,%eax
  40087c:	48 85 c0             	test   %rax,%rax
  40087f:	74 f4                	je     400875 <exit@plt+0x55>
  400881:	5d                   	pop    %rbp
  400882:	bf a0 20 60 00       	mov    $0x6020a0,%edi
  400887:	ff e0                	jmpq   *%rax
  400889:	0f 1f 80 00 00 00 00 	nopl   0x0(%rax)
  400890:	b8 a0 20 60 00       	mov    $0x6020a0,%eax
  400895:	55                   	push   %rbp
  400896:	48 2d a0 20 60 00    	sub    $0x6020a0,%rax
  40089c:	48 c1 f8 03          	sar    $0x3,%rax
  4008a0:	48 89 e5             	mov    %rsp,%rbp
  4008a3:	48 89 c2             	mov    %rax,%rdx
  4008a6:	48 c1 ea 3f          	shr    $0x3f,%rdx
  4008aa:	48 01 d0             	add    %rdx,%rax
  4008ad:	48 d1 f8             	sar    %rax
  4008b0:	75 02                	jne    4008b4 <exit@plt+0x94>
  4008b2:	5d                   	pop    %rbp
  4008b3:	c3                   	retq   
  4008b4:	ba 00 00 00 00       	mov    $0x0,%edx
  4008b9:	48 85 d2             	test   %rdx,%rdx
  4008bc:	74 f4                	je     4008b2 <exit@plt+0x92>
  4008be:	5d                   	pop    %rbp
  4008bf:	48 89 c6             	mov    %rax,%rsi
  4008c2:	bf a0 20 60 00       	mov    $0x6020a0,%edi
  4008c7:	ff e2                	jmpq   *%rdx
  4008c9:	0f 1f 80 00 00 00 00 	nopl   0x0(%rax)
  4008d0:	80 3d d1 17 20 00 00 	cmpb   $0x0,0x2017d1(%rip)        # 6020a8 <stdout+0x8>
  4008d7:	75 11                	jne    4008ea <exit@plt+0xca>
  4008d9:	55                   	push   %rbp
  4008da:	48 89 e5             	mov    %rsp,%rbp
  4008dd:	e8 7e ff ff ff       	callq  400860 <exit@plt+0x40>
  4008e2:	5d                   	pop    %rbp
  4008e3:	c6 05 be 17 20 00 01 	movb   $0x1,0x2017be(%rip)        # 6020a8 <stdout+0x8>
  4008ea:	f3 c3                	repz retq 
  4008ec:	0f 1f 40 00          	nopl   0x0(%rax)
  4008f0:	48 83 3d 28 15 20 00 	cmpq   $0x0,0x201528(%rip)        # 601e20 <exit@plt+0x201600>
  4008f7:	00 
  4008f8:	74 1e                	je     400918 <exit@plt+0xf8>
  4008fa:	b8 00 00 00 00       	mov    $0x0,%eax
  4008ff:	48 85 c0             	test   %rax,%rax
  400902:	74 14                	je     400918 <exit@plt+0xf8>
  400904:	55                   	push   %rbp
  400905:	bf 20 1e 60 00       	mov    $0x601e20,%edi
  40090a:	48 89 e5             	mov    %rsp,%rbp
  40090d:	ff d0                	callq  *%rax
  40090f:	5d                   	pop    %rbp
  400910:	e9 7b ff ff ff       	jmpq   400890 <exit@plt+0x70>
  400915:	0f 1f 00             	nopl   (%rax)
  400918:	e9 73 ff ff ff       	jmpq   400890 <exit@plt+0x70>
  40091d:	55                   	push   %rbp
  40091e:	48 89 e5             	mov    %rsp,%rbp
  400921:	48 83 ec 10          	sub    $0x10,%rsp
  400925:	64 48 8b 04 25 28 00 	mov    %fs:0x28,%rax
  40092c:	00 00 
  40092e:	48 89 45 f8          	mov    %rax,-0x8(%rbp)
  400932:	31 c0                	xor    %eax,%eax
  400934:	bf 58 0f 40 00       	mov    $0x400f58,%edi
  400939:	e8 12 fe ff ff       	callq  400750 <puts@plt>
  40093e:	bf 60 0f 40 00       	mov    $0x400f60,%edi
  400943:	e8 08 fe ff ff       	callq  400750 <puts@plt>
  400948:	bf b0 0f 40 00       	mov    $0x400fb0,%edi
  40094d:	e8 fe fd ff ff       	callq  400750 <puts@plt>
  400952:	bf 60 0f 40 00       	mov    $0x400f60,%edi
  400957:	e8 f4 fd ff ff       	callq  400750 <puts@plt>
  40095c:	bf 58 0f 40 00       	mov    $0x400f58,%edi
  400961:	e8 ea fd ff ff       	callq  400750 <puts@plt>
  400966:	bf d9 0f 40 00       	mov    $0x400fd9,%edi
  40096b:	e8 e0 fd ff ff       	callq  400750 <puts@plt>
  400970:	bf ef 0f 40 00       	mov    $0x400fef,%edi
  400975:	e8 d6 fd ff ff       	callq  400750 <puts@plt>
  40097a:	bf 08 10 40 00       	mov    $0x401008,%edi
  40097f:	e8 cc fd ff ff       	callq  400750 <puts@plt>
  400984:	bf 2e 10 40 00       	mov    $0x40102e,%edi
  400989:	e8 c2 fd ff ff       	callq  400750 <puts@plt>
  40098e:	bf 45 10 40 00       	mov    $0x401045,%edi
  400993:	e8 b8 fd ff ff       	callq  400750 <puts@plt>
  400998:	bf 58 0f 40 00       	mov    $0x400f58,%edi
  40099d:	e8 ae fd ff ff       	callq  400750 <puts@plt>
  4009a2:	bf 5c 10 40 00       	mov    $0x40105c,%edi
  4009a7:	b8 00 00 00 00       	mov    $0x0,%eax
  4009ac:	e8 bf fd ff ff       	callq  400770 <printf@plt>
  4009b1:	48 8b 45 f8          	mov    -0x8(%rbp),%rax
  4009b5:	64 48 33 04 25 28 00 	xor    %fs:0x28,%rax
  4009bc:	00 00 
  4009be:	74 05                	je     4009c5 <exit@plt+0x1a5>
  4009c0:	e8 9b fd ff ff       	callq  400760 <__stack_chk_fail@plt>
  4009c5:	c9                   	leaveq 
  4009c6:	c3                   	retq   
  4009c7:	55                   	push   %rbp
  4009c8:	48 89 e5             	mov    %rsp,%rbp
  4009cb:	48 83 ec 20          	sub    $0x20,%rsp
  4009cf:	64 48 8b 04 25 28 00 	mov    %fs:0x28,%rax
  4009d6:	00 00 
  4009d8:	48 89 45 f8          	mov    %rax,-0x8(%rbp)
  4009dc:	31 c0                	xor    %eax,%eax
  4009de:	48 c7 45 e8 00 00 00 	movq   $0x0,-0x18(%rbp)
  4009e5:	00 
  4009e6:	48 c7 45 f0 00 00 00 	movq   $0x0,-0x10(%rbp)
  4009ed:	00 
  4009ee:	c7 45 e0 00 00 00 00 	movl   $0x0,-0x20(%rbp)
  4009f5:	8b 05 b5 16 20 00    	mov    0x2016b5(%rip),%eax        # 6020b0 <stdout+0x10>
  4009fb:	83 f8 63             	cmp    $0x63,%eax
  4009fe:	0f 87 37 01 00 00    	ja     400b3b <exit@plt+0x31b>
  400a04:	bf 28 00 00 00       	mov    $0x28,%edi
  400a09:	e8 d2 fd ff ff       	callq  4007e0 <malloc@plt>
  400a0e:	48 89 45 e8          	mov    %rax,-0x18(%rbp)
  400a12:	48 8b 45 e8          	mov    -0x18(%rbp),%rax
  400a16:	ba 28 00 00 00       	mov    $0x28,%edx
  400a1b:	be 00 00 00 00       	mov    $0x0,%esi
  400a20:	48 89 c7             	mov    %rax,%rdi
  400a23:	e8 58 fd ff ff       	callq  400780 <memset@plt>
  400a28:	bf 6b 10 40 00       	mov    $0x40106b,%edi
  400a2d:	b8 00 00 00 00       	mov    $0x0,%eax
  400a32:	e8 39 fd ff ff       	callq  400770 <printf@plt>
  400a37:	48 8d 45 e0          	lea    -0x20(%rbp),%rax
  400a3b:	48 89 c6             	mov    %rax,%rsi
  400a3e:	bf 80 10 40 00       	mov    $0x401080,%edi
  400a43:	b8 00 00 00 00       	mov    $0x0,%eax
  400a48:	e8 c3 fd ff ff       	callq  400810 <__isoc99_scanf@plt>
  400a4d:	83 f8 ff             	cmp    $0xffffffff,%eax
  400a50:	75 0a                	jne    400a5c <exit@plt+0x23c>
  400a52:	bf ff ff ff ff       	mov    $0xffffffff,%edi
  400a57:	e8 c4 fd ff ff       	callq  400820 <exit@plt>
  400a5c:	8b 45 e0             	mov    -0x20(%rbp),%eax
  400a5f:	89 c0                	mov    %eax,%eax
  400a61:	48 89 c7             	mov    %rax,%rdi
  400a64:	e8 77 fd ff ff       	callq  4007e0 <malloc@plt>
  400a69:	48 89 45 f0          	mov    %rax,-0x10(%rbp)
  400a6d:	48 83 7d f0 00       	cmpq   $0x0,-0x10(%rbp)
  400a72:	75 14                	jne    400a88 <exit@plt+0x268>
  400a74:	bf 83 10 40 00       	mov    $0x401083,%edi
  400a79:	e8 d2 fc ff ff       	callq  400750 <puts@plt>
  400a7e:	bf ff ff ff ff       	mov    $0xffffffff,%edi
  400a83:	e8 98 fd ff ff       	callq  400820 <exit@plt>
  400a88:	bf 93 10 40 00       	mov    $0x401093,%edi
  400a8d:	b8 00 00 00 00       	mov    $0x0,%eax
  400a92:	e8 d9 fc ff ff       	callq  400770 <printf@plt>
  400a97:	8b 45 e0             	mov    -0x20(%rbp),%eax
  400a9a:	89 c2                	mov    %eax,%edx
  400a9c:	48 8b 45 f0          	mov    -0x10(%rbp),%rax
  400aa0:	48 89 c6             	mov    %rax,%rsi
  400aa3:	bf 00 00 00 00       	mov    $0x0,%edi
  400aa8:	e8 f3 fc ff ff       	callq  4007a0 <read@plt>
  400aad:	48 8b 45 e8          	mov    -0x18(%rbp),%rax
  400ab1:	48 8b 55 f0          	mov    -0x10(%rbp),%rdx
  400ab5:	48 89 50 08          	mov    %rdx,0x8(%rax)
  400ab9:	bf a8 10 40 00       	mov    $0x4010a8,%edi
  400abe:	b8 00 00 00 00       	mov    $0x0,%eax
  400ac3:	e8 a8 fc ff ff       	callq  400770 <printf@plt>
  400ac8:	48 8b 45 e8          	mov    -0x18(%rbp),%rax
  400acc:	48 83 c0 10          	add    $0x10,%rax
  400ad0:	48 89 c6             	mov    %rax,%rsi
  400ad3:	bf c2 10 40 00       	mov    $0x4010c2,%edi
  400ad8:	b8 00 00 00 00       	mov    $0x0,%eax
  400add:	e8 2e fd ff ff       	callq  400810 <__isoc99_scanf@plt>
  400ae2:	48 8b 45 e8          	mov    -0x18(%rbp),%rax
  400ae6:	c7 00 01 00 00 00    	movl   $0x1,(%rax)
  400aec:	c7 45 e4 00 00 00 00 	movl   $0x0,-0x1c(%rbp)
  400af3:	eb 25                	jmp    400b1a <exit@plt+0x2fa>
  400af5:	8b 45 e4             	mov    -0x1c(%rbp),%eax
  400af8:	48 8b 04 c5 c0 20 60 	mov    0x6020c0(,%rax,8),%rax
  400aff:	00 
  400b00:	48 85 c0             	test   %rax,%rax
  400b03:	75 11                	jne    400b16 <exit@plt+0x2f6>
  400b05:	8b 45 e4             	mov    -0x1c(%rbp),%eax
  400b08:	48 8b 55 e8          	mov    -0x18(%rbp),%rdx
  400b0c:	48 89 14 c5 c0 20 60 	mov    %rdx,0x6020c0(,%rax,8)
  400b13:	00 
  400b14:	eb 0a                	jmp    400b20 <exit@plt+0x300>
  400b16:	83 45 e4 01          	addl   $0x1,-0x1c(%rbp)
  400b1a:	83 7d e4 63          	cmpl   $0x63,-0x1c(%rbp)
  400b1e:	76 d5                	jbe    400af5 <exit@plt+0x2d5>
  400b20:	8b 05 8a 15 20 00    	mov    0x20158a(%rip),%eax        # 6020b0 <stdout+0x10>
  400b26:	83 c0 01             	add    $0x1,%eax
  400b29:	89 05 81 15 20 00    	mov    %eax,0x201581(%rip)        # 6020b0 <stdout+0x10>
  400b2f:	bf c7 10 40 00       	mov    $0x4010c7,%edi
  400b34:	e8 17 fc ff ff       	callq  400750 <puts@plt>
  400b39:	eb 0a                	jmp    400b45 <exit@plt+0x325>
  400b3b:	bf d4 10 40 00       	mov    $0x4010d4,%edi
  400b40:	e8 0b fc ff ff       	callq  400750 <puts@plt>
  400b45:	48 8b 4d f8          	mov    -0x8(%rbp),%rcx
  400b49:	64 48 33 0c 25 28 00 	xor    %fs:0x28,%rcx
  400b50:	00 00 
  400b52:	74 05                	je     400b59 <exit@plt+0x339>
  400b54:	e8 07 fc ff ff       	callq  400760 <__stack_chk_fail@plt>
  400b59:	c9                   	leaveq 
  400b5a:	c3                   	retq   
  400b5b:	55                   	push   %rbp
  400b5c:	48 89 e5             	mov    %rsp,%rbp
  400b5f:	48 83 ec 10          	sub    $0x10,%rsp
  400b63:	64 48 8b 04 25 28 00 	mov    %fs:0x28,%rax
  400b6a:	00 00 
  400b6c:	48 89 45 f8          	mov    %rax,-0x8(%rbp)
  400b70:	31 c0                	xor    %eax,%eax
  400b72:	8b 05 38 15 20 00    	mov    0x201538(%rip),%eax        # 6020b0 <stdout+0x10>
  400b78:	85 c0                	test   %eax,%eax
  400b7a:	75 0f                	jne    400b8b <exit@plt+0x36b>
  400b7c:	bf eb 10 40 00       	mov    $0x4010eb,%edi
  400b81:	e8 ca fb ff ff       	callq  400750 <puts@plt>
  400b86:	e9 86 00 00 00       	jmpq   400c11 <exit@plt+0x3f1>
  400b8b:	bf 08 11 40 00       	mov    $0x401108,%edi
  400b90:	b8 00 00 00 00       	mov    $0x0,%eax
  400b95:	e8 d6 fb ff ff       	callq  400770 <printf@plt>
  400b9a:	48 8d 45 f4          	lea    -0xc(%rbp),%rax
  400b9e:	48 89 c6             	mov    %rax,%rsi
  400ba1:	bf 3c 11 40 00       	mov    $0x40113c,%edi
  400ba6:	b8 00 00 00 00       	mov    $0x0,%eax
  400bab:	e8 60 fc ff ff       	callq  400810 <__isoc99_scanf@plt>
  400bb0:	8b 45 f4             	mov    -0xc(%rbp),%eax
  400bb3:	83 f8 63             	cmp    $0x63,%eax
  400bb6:	77 12                	ja     400bca <exit@plt+0x3aa>
  400bb8:	8b 45 f4             	mov    -0xc(%rbp),%eax
  400bbb:	89 c0                	mov    %eax,%eax
  400bbd:	48 8b 04 c5 c0 20 60 	mov    0x6020c0(,%rax,8),%rax
  400bc4:	00 
  400bc5:	48 85 c0             	test   %rax,%rax
  400bc8:	75 11                	jne    400bdb <exit@plt+0x3bb>
  400bca:	bf 3f 11 40 00       	mov    $0x40113f,%edi
  400bcf:	e8 7c fb ff ff       	callq  400750 <puts@plt>
  400bd4:	b8 00 00 00 00       	mov    $0x0,%eax
  400bd9:	eb 36                	jmp    400c11 <exit@plt+0x3f1>
  400bdb:	8b 45 f4             	mov    -0xc(%rbp),%eax
  400bde:	89 c0                	mov    %eax,%eax
  400be0:	48 8b 04 c5 c0 20 60 	mov    0x6020c0(,%rax,8),%rax
  400be7:	00 
  400be8:	c7 00 00 00 00 00    	movl   $0x0,(%rax)
  400bee:	8b 45 f4             	mov    -0xc(%rbp),%eax
  400bf1:	89 c0                	mov    %eax,%eax
  400bf3:	48 8b 04 c5 c0 20 60 	mov    0x6020c0(,%rax,8),%rax
  400bfa:	00 
  400bfb:	48 8b 40 08          	mov    0x8(%rax),%rax
  400bff:	48 89 c7             	mov    %rax,%rdi
  400c02:	e8 39 fb ff ff       	callq  400740 <free@plt>
  400c07:	bf 4e 11 40 00       	mov    $0x40114e,%edi
  400c0c:	e8 3f fb ff ff       	callq  400750 <puts@plt>
  400c11:	48 8b 55 f8          	mov    -0x8(%rbp),%rdx
  400c15:	64 48 33 14 25 28 00 	xor    %fs:0x28,%rdx
  400c1c:	00 00 
  400c1e:	74 05                	je     400c25 <exit@plt+0x405>
  400c20:	e8 3b fb ff ff       	callq  400760 <__stack_chk_fail@plt>
  400c25:	c9                   	leaveq 
  400c26:	c3                   	retq   
  400c27:	55                   	push   %rbp
  400c28:	48 89 e5             	mov    %rsp,%rbp
  400c2b:	48 83 ec 10          	sub    $0x10,%rsp
  400c2f:	64 48 8b 04 25 28 00 	mov    %fs:0x28,%rax
  400c36:	00 00 
  400c38:	48 89 45 f8          	mov    %rax,-0x8(%rbp)
  400c3c:	31 c0                	xor    %eax,%eax
  400c3e:	c7 45 f4 00 00 00 00 	movl   $0x0,-0xc(%rbp)
  400c45:	eb 56                	jmp    400c9d <exit@plt+0x47d>
  400c47:	8b 45 f4             	mov    -0xc(%rbp),%eax
  400c4a:	48 8b 04 c5 c0 20 60 	mov    0x6020c0(,%rax,8),%rax
  400c51:	00 
  400c52:	48 85 c0             	test   %rax,%rax
  400c55:	74 42                	je     400c99 <exit@plt+0x479>
  400c57:	8b 45 f4             	mov    -0xc(%rbp),%eax
  400c5a:	48 8b 04 c5 c0 20 60 	mov    0x6020c0(,%rax,8),%rax
  400c61:	00 
  400c62:	8b 00                	mov    (%rax),%eax
  400c64:	85 c0                	test   %eax,%eax
  400c66:	75 31                	jne    400c99 <exit@plt+0x479>
  400c68:	8b 45 f4             	mov    -0xc(%rbp),%eax
  400c6b:	48 8b 04 c5 c0 20 60 	mov    0x6020c0(,%rax,8),%rax
  400c72:	00 
  400c73:	48 89 c7             	mov    %rax,%rdi
  400c76:	e8 c5 fa ff ff       	callq  400740 <free@plt>
  400c7b:	8b 45 f4             	mov    -0xc(%rbp),%eax
  400c7e:	48 c7 04 c5 c0 20 60 	movq   $0x0,0x6020c0(,%rax,8)
  400c85:	00 00 00 00 00 
  400c8a:	8b 05 20 14 20 00    	mov    0x201420(%rip),%eax        # 6020b0 <stdout+0x10>
  400c90:	83 e8 01             	sub    $0x1,%eax
  400c93:	89 05 17 14 20 00    	mov    %eax,0x201417(%rip)        # 6020b0 <stdout+0x10>
  400c99:	83 45 f4 01          	addl   $0x1,-0xc(%rbp)
  400c9d:	83 7d f4 63          	cmpl   $0x63,-0xc(%rbp)
  400ca1:	76 a4                	jbe    400c47 <exit@plt+0x427>
  400ca3:	bf 59 11 40 00       	mov    $0x401159,%edi
  400ca8:	e8 a3 fa ff ff       	callq  400750 <puts@plt>
  400cad:	48 8b 45 f8          	mov    -0x8(%rbp),%rax
  400cb1:	64 48 33 04 25 28 00 	xor    %fs:0x28,%rax
  400cb8:	00 00 
  400cba:	74 05                	je     400cc1 <exit@plt+0x4a1>
  400cbc:	e8 9f fa ff ff       	callq  400760 <__stack_chk_fail@plt>
  400cc1:	c9                   	leaveq 
  400cc2:	c3                   	retq   
  400cc3:	55                   	push   %rbp
  400cc4:	48 89 e5             	mov    %rsp,%rbp
  400cc7:	48 83 ec 10          	sub    $0x10,%rsp
  400ccb:	64 48 8b 04 25 28 00 	mov    %fs:0x28,%rax
  400cd2:	00 00 
  400cd4:	48 89 45 f8          	mov    %rax,-0x8(%rbp)
  400cd8:	31 c0                	xor    %eax,%eax
  400cda:	8b 05 d0 13 20 00    	mov    0x2013d0(%rip),%eax        # 6020b0 <stdout+0x10>
  400ce0:	85 c0                	test   %eax,%eax
  400ce2:	75 0c                	jne    400cf0 <exit@plt+0x4d0>
  400ce4:	bf 5f 11 40 00       	mov    $0x40115f,%edi
  400ce9:	e8 62 fa ff ff       	callq  400750 <puts@plt>
  400cee:	eb 7a                	jmp    400d6a <exit@plt+0x54a>
  400cf0:	c7 45 f4 00 00 00 00 	movl   $0x0,-0xc(%rbp)
  400cf7:	eb 6b                	jmp    400d64 <exit@plt+0x544>
  400cf9:	8b 45 f4             	mov    -0xc(%rbp),%eax
  400cfc:	48 8b 04 c5 c0 20 60 	mov    0x6020c0(,%rax,8),%rax
  400d03:	00 
  400d04:	48 85 c0             	test   %rax,%rax
  400d07:	74 57                	je     400d60 <exit@plt+0x540>
  400d09:	8b 45 f4             	mov    -0xc(%rbp),%eax
  400d0c:	48 8b 04 c5 c0 20 60 	mov    0x6020c0(,%rax,8),%rax
  400d13:	00 
  400d14:	8b 00                	mov    (%rax),%eax
  400d16:	85 c0                	test   %eax,%eax
  400d18:	74 46                	je     400d60 <exit@plt+0x540>
  400d1a:	8b 45 f4             	mov    -0xc(%rbp),%eax
  400d1d:	48 8b 04 c5 c0 20 60 	mov    0x6020c0(,%rax,8),%rax
  400d24:	00 
  400d25:	48 8b 50 08          	mov    0x8(%rax),%rdx
  400d29:	8b 45 f4             	mov    -0xc(%rbp),%eax
  400d2c:	89 c6                	mov    %eax,%esi
  400d2e:	bf 79 11 40 00       	mov    $0x401179,%edi
  400d33:	b8 00 00 00 00       	mov    $0x0,%eax
  400d38:	e8 33 fa ff ff       	callq  400770 <printf@plt>
  400d3d:	8b 45 f4             	mov    -0xc(%rbp),%eax
  400d40:	48 8b 04 c5 c0 20 60 	mov    0x6020c0(,%rax,8),%rax
  400d47:	00 
  400d48:	48 8d 50 10          	lea    0x10(%rax),%rdx
  400d4c:	8b 45 f4             	mov    -0xc(%rbp),%eax
  400d4f:	89 c6                	mov    %eax,%esi
  400d51:	bf 95 11 40 00       	mov    $0x401195,%edi
  400d56:	b8 00 00 00 00       	mov    $0x0,%eax
  400d5b:	e8 10 fa ff ff       	callq  400770 <printf@plt>
  400d60:	83 45 f4 01          	addl   $0x1,-0xc(%rbp)
  400d64:	83 7d f4 63          	cmpl   $0x63,-0xc(%rbp)
  400d68:	76 8f                	jbe    400cf9 <exit@plt+0x4d9>
  400d6a:	48 8b 4d f8          	mov    -0x8(%rbp),%rcx
  400d6e:	64 48 33 0c 25 28 00 	xor    %fs:0x28,%rcx
  400d75:	00 00 
  400d77:	74 05                	je     400d7e <exit@plt+0x55e>
  400d79:	e8 e2 f9 ff ff       	callq  400760 <__stack_chk_fail@plt>
  400d7e:	c9                   	leaveq 
  400d7f:	c3                   	retq   
  400d80:	55                   	push   %rbp
  400d81:	48 89 e5             	mov    %rsp,%rbp
  400d84:	48 83 ec 20          	sub    $0x20,%rsp
  400d88:	89 7d ec             	mov    %edi,-0x14(%rbp)
  400d8b:	64 48 8b 04 25 28 00 	mov    %fs:0x28,%rax
  400d92:	00 00 
  400d94:	48 89 45 f8          	mov    %rax,-0x8(%rbp)
  400d98:	31 c0                	xor    %eax,%eax
  400d9a:	bf b2 11 40 00       	mov    $0x4011b2,%edi
  400d9f:	e8 ac f9 ff ff       	callq  400750 <puts@plt>
  400da4:	bf 01 00 00 00       	mov    $0x1,%edi
  400da9:	e8 72 fa ff ff       	callq  400820 <exit@plt>
  400dae:	55                   	push   %rbp
  400daf:	48 89 e5             	mov    %rsp,%rbp
  400db2:	48 83 ec 10          	sub    $0x10,%rsp
  400db6:	64 48 8b 04 25 28 00 	mov    %fs:0x28,%rax
  400dbd:	00 00 
  400dbf:	48 89 45 f8          	mov    %rax,-0x8(%rbp)
  400dc3:	31 c0                	xor    %eax,%eax
  400dc5:	48 8b 05 d4 12 20 00 	mov    0x2012d4(%rip),%rax        # 6020a0 <stdout>
  400dcc:	b9 00 00 00 00       	mov    $0x0,%ecx
  400dd1:	ba 02 00 00 00       	mov    $0x2,%edx
  400dd6:	be 00 00 00 00       	mov    $0x0,%esi
  400ddb:	48 89 c7             	mov    %rax,%rdi
  400dde:	e8 0d fa ff ff       	callq  4007f0 <setvbuf@plt>
  400de3:	be 80 0d 40 00       	mov    $0x400d80,%esi
  400de8:	bf 0e 00 00 00       	mov    $0xe,%edi
  400ded:	e8 ce f9 ff ff       	callq  4007c0 <signal@plt>
  400df2:	bf 3c 00 00 00       	mov    $0x3c,%edi
  400df7:	e8 94 f9 ff ff       	callq  400790 <alarm@plt>
  400dfc:	48 8b 45 f8          	mov    -0x8(%rbp),%rax
  400e00:	64 48 33 04 25 28 00 	xor    %fs:0x28,%rax
  400e07:	00 00 
  400e09:	74 05                	je     400e10 <exit@plt+0x5f0>
  400e0b:	e8 50 f9 ff ff       	callq  400760 <__stack_chk_fail@plt>
  400e10:	c9                   	leaveq 
  400e11:	c3                   	retq   
  400e12:	55                   	push   %rbp
  400e13:	48 89 e5             	mov    %rsp,%rbp
  400e16:	48 83 ec 30          	sub    $0x30,%rsp
  400e1a:	64 48 8b 04 25 28 00 	mov    %fs:0x28,%rax
  400e21:	00 00 
  400e23:	48 89 45 f8          	mov    %rax,-0x8(%rbp)
  400e27:	31 c0                	xor    %eax,%eax
  400e29:	b8 00 00 00 00       	mov    $0x0,%eax
  400e2e:	e8 7b ff ff ff       	callq  400dae <exit@plt+0x58e>
  400e33:	b8 00 00 00 00       	mov    $0x0,%eax
  400e38:	e8 e0 fa ff ff       	callq  40091d <exit@plt+0xfd>
  400e3d:	48 8d 45 e0          	lea    -0x20(%rbp),%rax
  400e41:	ba 08 00 00 00       	mov    $0x8,%edx
  400e46:	48 89 c6             	mov    %rax,%rsi
  400e49:	bf 00 00 00 00       	mov    $0x0,%edi
  400e4e:	e8 4d f9 ff ff       	callq  4007a0 <read@plt>
  400e53:	48 8d 45 e0          	lea    -0x20(%rbp),%rax
  400e57:	48 89 c7             	mov    %rax,%rdi
  400e5a:	e8 a1 f9 ff ff       	callq  400800 <atoi@plt>
  400e5f:	89 45 dc             	mov    %eax,-0x24(%rbp)
  400e62:	83 7d dc 05          	cmpl   $0x5,-0x24(%rbp)
  400e66:	77 51                	ja     400eb9 <exit@plt+0x699>
  400e68:	8b 45 dc             	mov    -0x24(%rbp),%eax
  400e6b:	48 8b 04 c5 d0 11 40 	mov    0x4011d0(,%rax,8),%rax
  400e72:	00 
  400e73:	ff e0                	jmpq   *%rax
  400e75:	b8 00 00 00 00       	mov    $0x0,%eax
  400e7a:	e8 48 fb ff ff       	callq  4009c7 <exit@plt+0x1a7>
  400e7f:	eb 43                	jmp    400ec4 <exit@plt+0x6a4>
  400e81:	b8 00 00 00 00       	mov    $0x0,%eax
  400e86:	e8 38 fe ff ff       	callq  400cc3 <exit@plt+0x4a3>
  400e8b:	eb 37                	jmp    400ec4 <exit@plt+0x6a4>
  400e8d:	b8 00 00 00 00       	mov    $0x0,%eax
  400e92:	e8 c4 fc ff ff       	callq  400b5b <exit@plt+0x33b>
  400e97:	eb 2b                	jmp    400ec4 <exit@plt+0x6a4>
  400e99:	b8 00 00 00 00       	mov    $0x0,%eax
  400e9e:	e8 84 fd ff ff       	callq  400c27 <exit@plt+0x407>
  400ea3:	eb 1f                	jmp    400ec4 <exit@plt+0x6a4>
  400ea5:	bf ba 11 40 00       	mov    $0x4011ba,%edi
  400eaa:	e8 a1 f8 ff ff       	callq  400750 <puts@plt>
  400eaf:	bf 00 00 00 00       	mov    $0x0,%edi
  400eb4:	e8 67 f9 ff ff       	callq  400820 <exit@plt>
  400eb9:	bf 3f 11 40 00       	mov    $0x40113f,%edi
  400ebe:	e8 8d f8 ff ff       	callq  400750 <puts@plt>
  400ec3:	90                   	nop
  400ec4:	e9 6a ff ff ff       	jmpq   400e33 <exit@plt+0x613>
  400ec9:	0f 1f 80 00 00 00 00 	nopl   0x0(%rax)
  400ed0:	41 57                	push   %r15
  400ed2:	41 89 ff             	mov    %edi,%r15d
  400ed5:	41 56                	push   %r14
  400ed7:	49 89 f6             	mov    %rsi,%r14
  400eda:	41 55                	push   %r13
  400edc:	49 89 d5             	mov    %rdx,%r13
  400edf:	41 54                	push   %r12
  400ee1:	4c 8d 25 28 0f 20 00 	lea    0x200f28(%rip),%r12        # 601e10 <exit@plt+0x2015f0>
  400ee8:	55                   	push   %rbp
  400ee9:	48 8d 2d 28 0f 20 00 	lea    0x200f28(%rip),%rbp        # 601e18 <exit@plt+0x2015f8>
  400ef0:	53                   	push   %rbx
  400ef1:	4c 29 e5             	sub    %r12,%rbp
  400ef4:	31 db                	xor    %ebx,%ebx
  400ef6:	48 c1 fd 03          	sar    $0x3,%rbp
  400efa:	48 83 ec 08          	sub    $0x8,%rsp
  400efe:	e8 05 f8 ff ff       	callq  400708 <free@plt-0x38>
  400f03:	48 85 ed             	test   %rbp,%rbp
  400f06:	74 1e                	je     400f26 <exit@plt+0x706>
  400f08:	0f 1f 84 00 00 00 00 	nopl   0x0(%rax,%rax,1)
  400f0f:	00 
  400f10:	4c 89 ea             	mov    %r13,%rdx
  400f13:	4c 89 f6             	mov    %r14,%rsi
  400f16:	44 89 ff             	mov    %r15d,%edi
  400f19:	41 ff 14 dc          	callq  *(%r12,%rbx,8)
  400f1d:	48 83 c3 01          	add    $0x1,%rbx
  400f21:	48 39 eb             	cmp    %rbp,%rbx
  400f24:	75 ea                	jne    400f10 <exit@plt+0x6f0>
  400f26:	48 83 c4 08          	add    $0x8,%rsp
  400f2a:	5b                   	pop    %rbx
  400f2b:	5d                   	pop    %rbp
  400f2c:	41 5c                	pop    %r12
  400f2e:	41 5d                	pop    %r13
  400f30:	41 5e                	pop    %r14
  400f32:	41 5f                	pop    %r15
  400f34:	c3                   	retq   
  400f35:	66 66 2e 0f 1f 84 00 	data32 nopw %cs:0x0(%rax,%rax,1)
  400f3c:	00 00 00 00 
  400f40:	f3 c3                	repz retq 

Disassembly of section .fini:

0000000000400f44 <.fini>:
  400f44:	48 83 ec 08          	sub    $0x8,%rsp
  400f48:	48 83 c4 08          	add    $0x8,%rsp
  400f4c:	c3                   	retq   
