
shop:     file format elf32-i386


Disassembly of section .init:

08048470 <.init>:
 8048470:	53                   	push   %ebx
 8048471:	83 ec 08             	sub    $0x8,%esp
 8048474:	e8 57 01 00 00       	call   80485d0 <__sprintf_chk@plt+0x70>
 8048479:	81 c3 87 2b 00 00    	add    $0x2b87,%ebx
 804847f:	8b 83 fc ff ff ff    	mov    -0x4(%ebx),%eax
 8048485:	85 c0                	test   %eax,%eax
 8048487:	74 05                	je     804848e <signal@plt-0x22>
 8048489:	e8 62 00 00 00       	call   80484f0 <__gmon_start__@plt>
 804848e:	83 c4 08             	add    $0x8,%esp
 8048491:	5b                   	pop    %ebx
 8048492:	c3                   	ret    

Disassembly of section .plt:

080484a0 <signal@plt-0x10>:
 80484a0:	ff 35 04 b0 04 08    	pushl  0x804b004
 80484a6:	ff 25 08 b0 04 08    	jmp    *0x804b008
 80484ac:	00 00                	add    %al,(%eax)
	...

080484b0 <signal@plt>:
 80484b0:	ff 25 0c b0 04 08    	jmp    *0x804b00c
 80484b6:	68 00 00 00 00       	push   $0x0
 80484bb:	e9 e0 ff ff ff       	jmp    80484a0 <signal@plt-0x10>

080484c0 <alarm@plt>:
 80484c0:	ff 25 10 b0 04 08    	jmp    *0x804b010
 80484c6:	68 08 00 00 00       	push   $0x8
 80484cb:	e9 d0 ff ff ff       	jmp    80484a0 <signal@plt-0x10>

080484d0 <__stack_chk_fail@plt>:
 80484d0:	ff 25 14 b0 04 08    	jmp    *0x804b014
 80484d6:	68 10 00 00 00       	push   $0x10
 80484db:	e9 c0 ff ff ff       	jmp    80484a0 <signal@plt-0x10>

080484e0 <_IO_getc@plt>:
 80484e0:	ff 25 18 b0 04 08    	jmp    *0x804b018
 80484e6:	68 18 00 00 00       	push   $0x18
 80484eb:	e9 b0 ff ff ff       	jmp    80484a0 <signal@plt-0x10>

080484f0 <__gmon_start__@plt>:
 80484f0:	ff 25 1c b0 04 08    	jmp    *0x804b01c
 80484f6:	68 20 00 00 00       	push   $0x20
 80484fb:	e9 a0 ff ff ff       	jmp    80484a0 <signal@plt-0x10>

08048500 <exit@plt>:
 8048500:	ff 25 20 b0 04 08    	jmp    *0x804b020
 8048506:	68 28 00 00 00       	push   $0x28
 804850b:	e9 90 ff ff ff       	jmp    80484a0 <signal@plt-0x10>

08048510 <strlen@plt>:
 8048510:	ff 25 24 b0 04 08    	jmp    *0x804b024
 8048516:	68 30 00 00 00       	push   $0x30
 804851b:	e9 80 ff ff ff       	jmp    80484a0 <signal@plt-0x10>

08048520 <__libc_start_main@plt>:
 8048520:	ff 25 28 b0 04 08    	jmp    *0x804b028
 8048526:	68 38 00 00 00       	push   $0x38
 804852b:	e9 70 ff ff ff       	jmp    80484a0 <signal@plt-0x10>

08048530 <write@plt>:
 8048530:	ff 25 2c b0 04 08    	jmp    *0x804b02c
 8048536:	68 40 00 00 00       	push   $0x40
 804853b:	e9 60 ff ff ff       	jmp    80484a0 <signal@plt-0x10>

08048540 <fileno@plt>:
 8048540:	ff 25 30 b0 04 08    	jmp    *0x804b030
 8048546:	68 48 00 00 00       	push   $0x48
 804854b:	e9 50 ff ff ff       	jmp    80484a0 <signal@plt-0x10>

08048550 <strtol@plt>:
 8048550:	ff 25 34 b0 04 08    	jmp    *0x804b034
 8048556:	68 50 00 00 00       	push   $0x50
 804855b:	e9 40 ff ff ff       	jmp    80484a0 <signal@plt-0x10>

08048560 <__sprintf_chk@plt>:
 8048560:	ff 25 38 b0 04 08    	jmp    *0x804b038
 8048566:	68 58 00 00 00       	push   $0x58
 804856b:	e9 30 ff ff ff       	jmp    80484a0 <signal@plt-0x10>

Disassembly of section .text:

08048570 <.text>:
 8048570:	55                   	push   %ebp
 8048571:	89 e5                	mov    %esp,%ebp
 8048573:	83 e4 f0             	and    $0xfffffff0,%esp
 8048576:	83 ec 10             	sub    $0x10,%esp
 8048579:	c7 44 24 04 90 87 04 	movl   $0x8048790,0x4(%esp)
 8048580:	08 
 8048581:	c7 04 24 0e 00 00 00 	movl   $0xe,(%esp)
 8048588:	e8 23 ff ff ff       	call   80484b0 <signal@plt>
 804858d:	c7 04 24 3c 00 00 00 	movl   $0x3c,(%esp)
 8048594:	e8 27 ff ff ff       	call   80484c0 <alarm@plt>
 8048599:	e8 62 06 00 00       	call   8048c00 <__sprintf_chk@plt+0x6a0>
 804859e:	c9                   	leave  
 804859f:	c3                   	ret    
 80485a0:	31 ed                	xor    %ebp,%ebp
 80485a2:	5e                   	pop    %esi
 80485a3:	89 e1                	mov    %esp,%ecx
 80485a5:	83 e4 f0             	and    $0xfffffff0,%esp
 80485a8:	50                   	push   %eax
 80485a9:	54                   	push   %esp
 80485aa:	52                   	push   %edx
 80485ab:	68 70 8d 04 08       	push   $0x8048d70
 80485b0:	68 00 8d 04 08       	push   $0x8048d00
 80485b5:	51                   	push   %ecx
 80485b6:	56                   	push   %esi
 80485b7:	68 70 85 04 08       	push   $0x8048570
 80485bc:	e8 5f ff ff ff       	call   8048520 <__libc_start_main@plt>
 80485c1:	f4                   	hlt    
 80485c2:	66 90                	xchg   %ax,%ax
 80485c4:	66 90                	xchg   %ax,%ax
 80485c6:	66 90                	xchg   %ax,%ax
 80485c8:	66 90                	xchg   %ax,%ax
 80485ca:	66 90                	xchg   %ax,%ax
 80485cc:	66 90                	xchg   %ax,%ax
 80485ce:	66 90                	xchg   %ax,%ax
 80485d0:	8b 1c 24             	mov    (%esp),%ebx
 80485d3:	c3                   	ret    
 80485d4:	66 90                	xchg   %ax,%ax
 80485d6:	66 90                	xchg   %ax,%ax
 80485d8:	66 90                	xchg   %ax,%ax
 80485da:	66 90                	xchg   %ax,%ax
 80485dc:	66 90                	xchg   %ax,%ax
 80485de:	66 90                	xchg   %ax,%ax
 80485e0:	b8 e3 b0 04 08       	mov    $0x804b0e3,%eax
 80485e5:	2d e0 b0 04 08       	sub    $0x804b0e0,%eax
 80485ea:	83 f8 06             	cmp    $0x6,%eax
 80485ed:	77 01                	ja     80485f0 <__sprintf_chk@plt+0x90>
 80485ef:	c3                   	ret    
 80485f0:	b8 00 00 00 00       	mov    $0x0,%eax
 80485f5:	85 c0                	test   %eax,%eax
 80485f7:	74 f6                	je     80485ef <__sprintf_chk@plt+0x8f>
 80485f9:	55                   	push   %ebp
 80485fa:	89 e5                	mov    %esp,%ebp
 80485fc:	83 ec 18             	sub    $0x18,%esp
 80485ff:	c7 04 24 e0 b0 04 08 	movl   $0x804b0e0,(%esp)
 8048606:	ff d0                	call   *%eax
 8048608:	c9                   	leave  
 8048609:	c3                   	ret    
 804860a:	8d b6 00 00 00 00    	lea    0x0(%esi),%esi
 8048610:	b8 e0 b0 04 08       	mov    $0x804b0e0,%eax
 8048615:	2d e0 b0 04 08       	sub    $0x804b0e0,%eax
 804861a:	c1 f8 02             	sar    $0x2,%eax
 804861d:	89 c2                	mov    %eax,%edx
 804861f:	c1 ea 1f             	shr    $0x1f,%edx
 8048622:	01 d0                	add    %edx,%eax
 8048624:	d1 f8                	sar    %eax
 8048626:	75 01                	jne    8048629 <__sprintf_chk@plt+0xc9>
 8048628:	c3                   	ret    
 8048629:	ba 00 00 00 00       	mov    $0x0,%edx
 804862e:	85 d2                	test   %edx,%edx
 8048630:	74 f6                	je     8048628 <__sprintf_chk@plt+0xc8>
 8048632:	55                   	push   %ebp
 8048633:	89 e5                	mov    %esp,%ebp
 8048635:	83 ec 18             	sub    $0x18,%esp
 8048638:	89 44 24 04          	mov    %eax,0x4(%esp)
 804863c:	c7 04 24 e0 b0 04 08 	movl   $0x804b0e0,(%esp)
 8048643:	ff d2                	call   *%edx
 8048645:	c9                   	leave  
 8048646:	c3                   	ret    
 8048647:	89 f6                	mov    %esi,%esi
 8048649:	8d bc 27 00 00 00 00 	lea    0x0(%edi,%eiz,1),%edi
 8048650:	80 3d 04 b1 04 08 00 	cmpb   $0x0,0x804b104
 8048657:	75 13                	jne    804866c <__sprintf_chk@plt+0x10c>
 8048659:	55                   	push   %ebp
 804865a:	89 e5                	mov    %esp,%ebp
 804865c:	83 ec 08             	sub    $0x8,%esp
 804865f:	e8 7c ff ff ff       	call   80485e0 <__sprintf_chk@plt+0x80>
 8048664:	c6 05 04 b1 04 08 01 	movb   $0x1,0x804b104
 804866b:	c9                   	leave  
 804866c:	f3 c3                	repz ret 
 804866e:	66 90                	xchg   %ax,%ax
 8048670:	a1 10 af 04 08       	mov    0x804af10,%eax
 8048675:	85 c0                	test   %eax,%eax
 8048677:	74 1f                	je     8048698 <__sprintf_chk@plt+0x138>
 8048679:	b8 00 00 00 00       	mov    $0x0,%eax
 804867e:	85 c0                	test   %eax,%eax
 8048680:	74 16                	je     8048698 <__sprintf_chk@plt+0x138>
 8048682:	55                   	push   %ebp
 8048683:	89 e5                	mov    %esp,%ebp
 8048685:	83 ec 18             	sub    $0x18,%esp
 8048688:	c7 04 24 10 af 04 08 	movl   $0x804af10,(%esp)
 804868f:	ff d0                	call   *%eax
 8048691:	c9                   	leave  
 8048692:	e9 79 ff ff ff       	jmp    8048610 <__sprintf_chk@plt+0xb0>
 8048697:	90                   	nop
 8048698:	e9 73 ff ff ff       	jmp    8048610 <__sprintf_chk@plt+0xb0>
 804869d:	66 90                	xchg   %ax,%ax
 804869f:	90                   	nop
 80486a0:	56                   	push   %esi
 80486a1:	53                   	push   %ebx
 80486a2:	83 ec 14             	sub    $0x14,%esp
 80486a5:	8b 5c 24 20          	mov    0x20(%esp),%ebx
 80486a9:	89 1c 24             	mov    %ebx,(%esp)
 80486ac:	e8 5f fe ff ff       	call   8048510 <strlen@plt>
 80486b1:	89 c6                	mov    %eax,%esi
 80486b3:	a1 00 b1 04 08       	mov    0x804b100,%eax
 80486b8:	89 04 24             	mov    %eax,(%esp)
 80486bb:	e8 80 fe ff ff       	call   8048540 <fileno@plt>
 80486c0:	89 74 24 08          	mov    %esi,0x8(%esp)
 80486c4:	89 5c 24 04          	mov    %ebx,0x4(%esp)
 80486c8:	89 04 24             	mov    %eax,(%esp)
 80486cb:	e8 60 fe ff ff       	call   8048530 <write@plt>
 80486d0:	89 1c 24             	mov    %ebx,(%esp)
 80486d3:	89 c6                	mov    %eax,%esi
 80486d5:	e8 36 fe ff ff       	call   8048510 <strlen@plt>
 80486da:	39 f0                	cmp    %esi,%eax
 80486dc:	75 06                	jne    80486e4 <__sprintf_chk@plt+0x184>
 80486de:	83 c4 14             	add    $0x14,%esp
 80486e1:	5b                   	pop    %ebx
 80486e2:	5e                   	pop    %esi
 80486e3:	c3                   	ret    
 80486e4:	c7 04 24 01 00 00 00 	movl   $0x1,(%esp)
 80486eb:	e8 10 fe ff ff       	call   8048500 <exit@plt>
 80486f0:	55                   	push   %ebp
 80486f1:	31 c0                	xor    %eax,%eax
 80486f3:	57                   	push   %edi
 80486f4:	56                   	push   %esi
 80486f5:	53                   	push   %ebx
 80486f6:	83 ec 1c             	sub    $0x1c,%esp
 80486f9:	8b 5c 24 34          	mov    0x34(%esp),%ebx
 80486fd:	8b 74 24 30          	mov    0x30(%esp),%esi
 8048701:	0f b6 54 24 38       	movzbl 0x38(%esp),%edx
 8048706:	85 db                	test   %ebx,%ebx
 8048708:	74 41                	je     804874b <__sprintf_chk@plt+0x1eb>
 804870a:	31 ed                	xor    %ebp,%ebp
 804870c:	0f be fa             	movsbl %dl,%edi
 804870f:	eb 17                	jmp    8048728 <__sprintf_chk@plt+0x1c8>
 8048711:	8d b4 26 00 00 00 00 	lea    0x0(%esi,%eiz,1),%esi
 8048718:	39 c7                	cmp    %eax,%edi
 804871a:	74 3c                	je     8048758 <__sprintf_chk@plt+0x1f8>
 804871c:	39 dd                	cmp    %ebx,%ebp
 804871e:	66 90                	xchg   %ax,%ax
 8048720:	74 46                	je     8048768 <__sprintf_chk@plt+0x208>
 8048722:	88 04 2e             	mov    %al,(%esi,%ebp,1)
 8048725:	83 c5 01             	add    $0x1,%ebp
 8048728:	a1 e0 b0 04 08       	mov    0x804b0e0,%eax
 804872d:	89 04 24             	mov    %eax,(%esp)
 8048730:	e8 ab fd ff ff       	call   80484e0 <_IO_getc@plt>
 8048735:	83 f8 ff             	cmp    $0xffffffff,%eax
 8048738:	75 de                	jne    8048718 <__sprintf_chk@plt+0x1b8>
 804873a:	c7 04 24 90 8d 04 08 	movl   $0x8048d90,(%esp)
 8048741:	e8 5a ff ff ff       	call   80486a0 <__sprintf_chk@plt+0x140>
 8048746:	b8 ff ff ff ff       	mov    $0xffffffff,%eax
 804874b:	83 c4 1c             	add    $0x1c,%esp
 804874e:	5b                   	pop    %ebx
 804874f:	5e                   	pop    %esi
 8048750:	5f                   	pop    %edi
 8048751:	5d                   	pop    %ebp
 8048752:	c3                   	ret    
 8048753:	90                   	nop
 8048754:	8d 74 26 00          	lea    0x0(%esi,%eiz,1),%esi
 8048758:	c6 04 2e 00          	movb   $0x0,(%esi,%ebp,1)
 804875c:	83 c4 1c             	add    $0x1c,%esp
 804875f:	89 e8                	mov    %ebp,%eax
 8048761:	5b                   	pop    %ebx
 8048762:	5e                   	pop    %esi
 8048763:	5f                   	pop    %edi
 8048764:	5d                   	pop    %ebp
 8048765:	c3                   	ret    
 8048766:	66 90                	xchg   %ax,%ax
 8048768:	c7 04 24 9f 8d 04 08 	movl   $0x8048d9f,(%esp)
 804876f:	e8 2c ff ff ff       	call   80486a0 <__sprintf_chk@plt+0x140>
 8048774:	83 c4 1c             	add    $0x1c,%esp
 8048777:	b8 fe ff ff ff       	mov    $0xfffffffe,%eax
 804877c:	5b                   	pop    %ebx
 804877d:	5e                   	pop    %esi
 804877e:	5f                   	pop    %edi
 804877f:	5d                   	pop    %ebp
 8048780:	c3                   	ret    
 8048781:	66 90                	xchg   %ax,%ax
 8048783:	66 90                	xchg   %ax,%ax
 8048785:	66 90                	xchg   %ax,%ax
 8048787:	66 90                	xchg   %ax,%ax
 8048789:	66 90                	xchg   %ax,%ax
 804878b:	66 90                	xchg   %ax,%ax
 804878d:	66 90                	xchg   %ax,%ax
 804878f:	90                   	nop
 8048790:	83 ec 1c             	sub    $0x1c,%esp
 8048793:	c7 04 24 b3 8d 04 08 	movl   $0x8048db3,(%esp)
 804879a:	e8 01 ff ff ff       	call   80486a0 <__sprintf_chk@plt+0x140>
 804879f:	c7 04 24 00 00 00 00 	movl   $0x0,(%esp)
 80487a6:	e8 55 fd ff ff       	call   8048500 <exit@plt>
 80487ab:	90                   	nop
 80487ac:	8d 74 26 00          	lea    0x0(%esi,%eiz,1),%esi
 80487b0:	53                   	push   %ebx
 80487b1:	bb d0 b0 04 08       	mov    $0x804b0d0,%ebx
 80487b6:	83 ec 28             	sub    $0x28,%esp
 80487b9:	c7 04 24 bc 8d 04 08 	movl   $0x8048dbc,(%esp)
 80487c0:	e8 db fe ff ff       	call   80486a0 <__sprintf_chk@plt+0x140>
 80487c5:	8d 76 00             	lea    0x0(%esi),%esi
 80487c8:	8b 43 0c             	mov    0xc(%ebx),%eax
 80487cb:	83 eb 10             	sub    $0x10,%ebx
 80487ce:	c7 44 24 0c d3 8d 04 	movl   $0x8048dd3,0xc(%esp)
 80487d5:	08 
 80487d6:	c7 44 24 08 81 00 00 	movl   $0x81,0x8(%esp)
 80487dd:	00 
 80487de:	c7 44 24 04 01 00 00 	movl   $0x1,0x4(%esp)
 80487e5:	00 
 80487e6:	89 44 24 1c          	mov    %eax,0x1c(%esp)
 80487ea:	8b 43 18             	mov    0x18(%ebx),%eax
 80487ed:	c7 04 24 40 b1 04 08 	movl   $0x804b140,(%esp)
 80487f4:	89 44 24 18          	mov    %eax,0x18(%esp)
 80487f8:	8b 43 14             	mov    0x14(%ebx),%eax
 80487fb:	89 44 24 14          	mov    %eax,0x14(%esp)
 80487ff:	8b 43 10             	mov    0x10(%ebx),%eax
 8048802:	89 44 24 10          	mov    %eax,0x10(%esp)
 8048806:	e8 55 fd ff ff       	call   8048560 <__sprintf_chk@plt>
 804880b:	c7 04 24 40 b1 04 08 	movl   $0x804b140,(%esp)
 8048812:	e8 89 fe ff ff       	call   80486a0 <__sprintf_chk@plt+0x140>
 8048817:	81 fb 50 b0 04 08    	cmp    $0x804b050,%ebx
 804881d:	75 a9                	jne    80487c8 <__sprintf_chk@plt+0x268>
 804881f:	c7 04 24 ed 8d 04 08 	movl   $0x8048ded,(%esp)
 8048826:	e8 75 fe ff ff       	call   80486a0 <__sprintf_chk@plt+0x140>
 804882b:	c7 04 24 08 8e 04 08 	movl   $0x8048e08,(%esp)
 8048832:	e8 69 fe ff ff       	call   80486a0 <__sprintf_chk@plt+0x140>
 8048837:	83 c4 28             	add    $0x28,%esp
 804883a:	5b                   	pop    %ebx
 804883b:	c3                   	ret    
 804883c:	8d 74 26 00          	lea    0x0(%esi,%eiz,1),%esi
 8048840:	53                   	push   %ebx
 8048841:	83 ec 28             	sub    $0x28,%esp
 8048844:	8b 5c 24 30          	mov    0x30(%esp),%ebx
 8048848:	e8 63 ff ff ff       	call   80487b0 <__sprintf_chk@plt+0x250>
 804884d:	c7 44 24 08 0a 00 00 	movl   $0xa,0x8(%esp)
 8048854:	00 
 8048855:	c7 44 24 04 08 00 00 	movl   $0x8,0x4(%esp)
 804885c:	00 
 804885d:	c7 04 24 a8 b2 04 08 	movl   $0x804b2a8,(%esp)
 8048864:	e8 87 fe ff ff       	call   80486f0 <__sprintf_chk@plt+0x190>
 8048869:	85 c0                	test   %eax,%eax
 804886b:	0f 88 c6 00 00 00    	js     8048937 <__sprintf_chk@plt+0x3d7>
 8048871:	74 45                	je     80488b8 <__sprintf_chk@plt+0x358>
 8048873:	80 3d a8 b2 04 08 2d 	cmpb   $0x2d,0x804b2a8
 804887a:	74 2e                	je     80488aa <__sprintf_chk@plt+0x34a>
 804887c:	c7 44 24 08 0a 00 00 	movl   $0xa,0x8(%esp)
 8048883:	00 
 8048884:	c7 44 24 04 00 00 00 	movl   $0x0,0x4(%esp)
 804888b:	00 
 804888c:	c7 04 24 a8 b2 04 08 	movl   $0x804b2a8,(%esp)
 8048893:	e8 b8 fc ff ff       	call   8048550 <strtol@plt>
 8048898:	83 f8 08             	cmp    $0x8,%eax
 804889b:	7f 0d                	jg     80488aa <__sprintf_chk@plt+0x34a>
 804889d:	85 c0                	test   %eax,%eax
 804889f:	75 2f                	jne    80488d0 <__sprintf_chk@plt+0x370>
 80488a1:	80 3d a8 b2 04 08 30 	cmpb   $0x30,0x804b2a8
 80488a8:	74 1e                	je     80488c8 <__sprintf_chk@plt+0x368>
 80488aa:	c7 04 24 36 8e 04 08 	movl   $0x8048e36,(%esp)
 80488b1:	e8 ea fd ff ff       	call   80486a0 <__sprintf_chk@plt+0x140>
 80488b6:	eb 90                	jmp    8048848 <__sprintf_chk@plt+0x2e8>
 80488b8:	c7 04 24 24 8e 04 08 	movl   $0x8048e24,(%esp)
 80488bf:	e8 dc fd ff ff       	call   80486a0 <__sprintf_chk@plt+0x140>
 80488c4:	eb 82                	jmp    8048848 <__sprintf_chk@plt+0x2e8>
 80488c6:	66 90                	xchg   %ax,%ax
 80488c8:	83 c4 28             	add    $0x28,%esp
 80488cb:	5b                   	pop    %ebx
 80488cc:	c3                   	ret    
 80488cd:	8d 76 00             	lea    0x0(%esi),%esi
 80488d0:	81 3d b4 b2 04 08 e8 	cmpl   $0x3e8,0x804b2b4
 80488d7:	03 00 00 
 80488da:	7f 1e                	jg     80488fa <__sprintf_chk@plt+0x39a>
 80488dc:	29 c3                	sub    %eax,%ebx
 80488de:	80 43 08 01          	addb   $0x1,0x8(%ebx)
 80488e2:	83 05 b4 b2 04 08 01 	addl   $0x1,0x804b2b4
 80488e9:	c7 44 24 30 90 90 04 	movl   $0x8049090,0x30(%esp)
 80488f0:	08 
 80488f1:	83 c4 28             	add    $0x28,%esp
 80488f4:	5b                   	pop    %ebx
 80488f5:	e9 a6 fd ff ff       	jmp    80486a0 <__sprintf_chk@plt+0x140>
 80488fa:	c7 44 24 10 e8 03 00 	movl   $0x3e8,0x10(%esp)
 8048901:	00 
 8048902:	c7 44 24 0c 68 90 04 	movl   $0x8049068,0xc(%esp)
 8048909:	08 
 804890a:	c7 44 24 08 81 00 00 	movl   $0x81,0x8(%esp)
 8048911:	00 
 8048912:	c7 44 24 04 01 00 00 	movl   $0x1,0x4(%esp)
 8048919:	00 
 804891a:	c7 04 24 40 b1 04 08 	movl   $0x804b140,(%esp)
 8048921:	e8 3a fc ff ff       	call   8048560 <__sprintf_chk@plt>
 8048926:	c7 44 24 30 40 b1 04 	movl   $0x804b140,0x30(%esp)
 804892d:	08 
 804892e:	83 c4 28             	add    $0x28,%esp
 8048931:	5b                   	pop    %ebx
 8048932:	e9 69 fd ff ff       	jmp    80486a0 <__sprintf_chk@plt+0x140>
 8048937:	c7 04 24 02 00 00 00 	movl   $0x2,(%esp)
 804893e:	e8 bd fb ff ff       	call   8048500 <exit@plt>
 8048943:	8d b6 00 00 00 00    	lea    0x0(%esi),%esi
 8048949:	8d bc 27 00 00 00 00 	lea    0x0(%edi,%eiz,1),%edi
 8048950:	55                   	push   %ebp
 8048951:	31 ed                	xor    %ebp,%ebp
 8048953:	57                   	push   %edi
 8048954:	56                   	push   %esi
 8048955:	53                   	push   %ebx
 8048956:	bb d0 b0 04 08       	mov    $0x804b0d0,%ebx
 804895b:	83 ec 2c             	sub    $0x2c,%esp
 804895e:	8b 74 24 40          	mov    0x40(%esp),%esi
 8048962:	c7 04 24 4a 8e 04 08 	movl   $0x8048e4a,(%esp)
 8048969:	e8 32 fd ff ff       	call   80486a0 <__sprintf_chk@plt+0x140>
 804896e:	83 c6 07             	add    $0x7,%esi
 8048971:	eb 13                	jmp    8048986 <__sprintf_chk@plt+0x426>
 8048973:	90                   	nop
 8048974:	8d 74 26 00          	lea    0x0(%esi,%eiz,1),%esi
 8048978:	83 eb 10             	sub    $0x10,%ebx
 804897b:	83 ee 01             	sub    $0x1,%esi
 804897e:	81 fb 50 b0 04 08    	cmp    $0x804b050,%ebx
 8048984:	74 62                	je     80489e8 <__sprintf_chk@plt+0x488>
 8048986:	0f b6 06             	movzbl (%esi),%eax
 8048989:	8b 13                	mov    (%ebx),%edx
 804898b:	8b 4b 04             	mov    0x4(%ebx),%ecx
 804898e:	8b 7b 08             	mov    0x8(%ebx),%edi
 8048991:	84 c0                	test   %al,%al
 8048993:	74 e3                	je     8048978 <__sprintf_chk@plt+0x418>
 8048995:	89 4c 24 14          	mov    %ecx,0x14(%esp)
 8048999:	83 eb 10             	sub    $0x10,%ebx
 804899c:	83 ee 01             	sub    $0x1,%esi
 804899f:	89 54 24 10          	mov    %edx,0x10(%esp)
 80489a3:	89 44 24 18          	mov    %eax,0x18(%esp)
 80489a7:	c7 44 24 0c 5f 8e 04 	movl   $0x8048e5f,0xc(%esp)
 80489ae:	08 
 80489af:	c7 44 24 08 81 00 00 	movl   $0x81,0x8(%esp)
 80489b6:	00 
 80489b7:	c7 44 24 04 01 00 00 	movl   $0x1,0x4(%esp)
 80489be:	00 
 80489bf:	c7 04 24 40 b1 04 08 	movl   $0x804b140,(%esp)
 80489c6:	e8 95 fb ff ff       	call   8048560 <__sprintf_chk@plt>
 80489cb:	c7 04 24 40 b1 04 08 	movl   $0x804b140,(%esp)
 80489d2:	e8 c9 fc ff ff       	call   80486a0 <__sprintf_chk@plt+0x140>
 80489d7:	0f b6 46 01          	movzbl 0x1(%esi),%eax
 80489db:	0f af c7             	imul   %edi,%eax
 80489de:	01 c5                	add    %eax,%ebp
 80489e0:	81 fb 50 b0 04 08    	cmp    $0x804b050,%ebx
 80489e6:	75 9e                	jne    8048986 <__sprintf_chk@plt+0x426>
 80489e8:	89 6c 24 10          	mov    %ebp,0x10(%esp)
 80489ec:	c7 44 24 0c 74 8e 04 	movl   $0x8048e74,0xc(%esp)
 80489f3:	08 
 80489f4:	c7 44 24 08 81 00 00 	movl   $0x81,0x8(%esp)
 80489fb:	00 
 80489fc:	c7 44 24 04 01 00 00 	movl   $0x1,0x4(%esp)
 8048a03:	00 
 8048a04:	c7 04 24 40 b1 04 08 	movl   $0x804b140,(%esp)
 8048a0b:	e8 50 fb ff ff       	call   8048560 <__sprintf_chk@plt>
 8048a10:	c7 44 24 40 40 b1 04 	movl   $0x804b140,0x40(%esp)
 8048a17:	08 
 8048a18:	83 c4 2c             	add    $0x2c,%esp
 8048a1b:	5b                   	pop    %ebx
 8048a1c:	5e                   	pop    %esi
 8048a1d:	5f                   	pop    %edi
 8048a1e:	5d                   	pop    %ebp
 8048a1f:	e9 7c fc ff ff       	jmp    80486a0 <__sprintf_chk@plt+0x140>
 8048a24:	8d b6 00 00 00 00    	lea    0x0(%esi),%esi
 8048a2a:	8d bf 00 00 00 00    	lea    0x0(%edi),%edi
 8048a30:	53                   	push   %ebx
 8048a31:	b8 d8 b0 04 08       	mov    $0x804b0d8,%eax
 8048a36:	83 ec 28             	sub    $0x28,%esp
 8048a39:	8b 5c 24 30          	mov    0x30(%esp),%ebx
 8048a3d:	8d 4b 07             	lea    0x7(%ebx),%ecx
 8048a40:	31 db                	xor    %ebx,%ebx
 8048a42:	8d b6 00 00 00 00    	lea    0x0(%esi),%esi
 8048a48:	0f b6 11             	movzbl (%ecx),%edx
 8048a4b:	83 e8 10             	sub    $0x10,%eax
 8048a4e:	83 e9 01             	sub    $0x1,%ecx
 8048a51:	0f af 50 10          	imul   0x10(%eax),%edx
 8048a55:	01 d3                	add    %edx,%ebx
 8048a57:	3d 58 b0 04 08       	cmp    $0x804b058,%eax
 8048a5c:	75 ea                	jne    8048a48 <__sprintf_chk@plt+0x4e8>
 8048a5e:	c7 04 24 81 8e 04 08 	movl   $0x8048e81,(%esp)
 8048a65:	e8 36 fc ff ff       	call   80486a0 <__sprintf_chk@plt+0x140>
 8048a6a:	89 5c 24 10          	mov    %ebx,0x10(%esp)
 8048a6e:	c7 44 24 0c 95 8e 04 	movl   $0x8048e95,0xc(%esp)
 8048a75:	08 
 8048a76:	c7 44 24 08 81 00 00 	movl   $0x81,0x8(%esp)
 8048a7d:	00 
 8048a7e:	c7 44 24 04 01 00 00 	movl   $0x1,0x4(%esp)
 8048a85:	00 
 8048a86:	c7 04 24 40 b1 04 08 	movl   $0x804b140,(%esp)
 8048a8d:	e8 ce fa ff ff       	call   8048560 <__sprintf_chk@plt>
 8048a92:	c7 04 24 40 b1 04 08 	movl   $0x804b140,(%esp)
 8048a99:	e8 02 fc ff ff       	call   80486a0 <__sprintf_chk@plt+0x140>
 8048a9e:	c7 04 24 40 b1 04 08 	movl   $0x804b140,(%esp)
 8048aa5:	e8 f6 fb ff ff       	call   80486a0 <__sprintf_chk@plt+0x140>
 8048aaa:	85 db                	test   %ebx,%ebx
 8048aac:	75 12                	jne    8048ac0 <__sprintf_chk@plt+0x560>
 8048aae:	c7 44 24 30 a3 8e 04 	movl   $0x8048ea3,0x30(%esp)
 8048ab5:	08 
 8048ab6:	83 c4 28             	add    $0x28,%esp
 8048ab9:	5b                   	pop    %ebx
 8048aba:	e9 e1 fb ff ff       	jmp    80486a0 <__sprintf_chk@plt+0x140>
 8048abf:	90                   	nop
 8048ac0:	c7 04 24 b9 8e 04 08 	movl   $0x8048eb9,(%esp)
 8048ac7:	e8 d4 fb ff ff       	call   80486a0 <__sprintf_chk@plt+0x140>
 8048acc:	c7 44 24 08 0a 00 00 	movl   $0xa,0x8(%esp)
 8048ad3:	00 
 8048ad4:	c7 44 24 04 08 00 00 	movl   $0x8,0x4(%esp)
 8048adb:	00 
 8048adc:	c7 04 24 a8 b2 04 08 	movl   $0x804b2a8,(%esp)
 8048ae3:	e8 08 fc ff ff       	call   80486f0 <__sprintf_chk@plt+0x190>
 8048ae8:	85 c0                	test   %eax,%eax
 8048aea:	0f 88 7f 00 00 00    	js     8048b6f <__sprintf_chk@plt+0x60f>
 8048af0:	75 06                	jne    8048af8 <__sprintf_chk@plt+0x598>
 8048af2:	83 c4 28             	add    $0x28,%esp
 8048af5:	5b                   	pop    %ebx
 8048af6:	c3                   	ret    
 8048af7:	90                   	nop
 8048af8:	0f b6 05 a8 b2 04 08 	movzbl 0x804b2a8,%eax
 8048aff:	83 e0 df             	and    $0xffffffdf,%eax
 8048b02:	3c 59                	cmp    $0x59,%al
 8048b04:	75 ec                	jne    8048af2 <__sprintf_chk@plt+0x592>
 8048b06:	c7 04 24 c9 8e 04 08 	movl   $0x8048ec9,(%esp)
 8048b0d:	e8 8e fb ff ff       	call   80486a0 <__sprintf_chk@plt+0x140>
 8048b12:	c7 44 24 08 0a 00 00 	movl   $0xa,0x8(%esp)
 8048b19:	00 
 8048b1a:	c7 44 24 04 14 00 00 	movl   $0x14,0x4(%esp)
 8048b21:	00 
 8048b22:	c7 04 24 20 b1 04 08 	movl   $0x804b120,(%esp)
 8048b29:	e8 c2 fb ff ff       	call   80486f0 <__sprintf_chk@plt+0x190>
 8048b2e:	85 c0                	test   %eax,%eax
 8048b30:	78 3d                	js     8048b6f <__sprintf_chk@plt+0x60f>
 8048b32:	c7 04 24 e3 8e 04 08 	movl   $0x8048ee3,(%esp)
 8048b39:	e8 62 fb ff ff       	call   80486a0 <__sprintf_chk@plt+0x140>
 8048b3e:	c7 44 24 08 0a 00 00 	movl   $0xa,0x8(%esp)
 8048b45:	00 
 8048b46:	c7 44 24 04 c8 00 00 	movl   $0xc8,0x4(%esp)
 8048b4d:	00 
 8048b4e:	c7 04 24 e0 b1 04 08 	movl   $0x804b1e0,(%esp)
 8048b55:	e8 96 fb ff ff       	call   80486f0 <__sprintf_chk@plt+0x190>
 8048b5a:	85 c0                	test   %eax,%eax
 8048b5c:	78 11                	js     8048b6f <__sprintf_chk@plt+0x60f>
 8048b5e:	c7 44 24 30 f7 8e 04 	movl   $0x8048ef7,0x30(%esp)
 8048b65:	08 
 8048b66:	83 c4 28             	add    $0x28,%esp
 8048b69:	5b                   	pop    %ebx
 8048b6a:	e9 31 fb ff ff       	jmp    80486a0 <__sprintf_chk@plt+0x140>
 8048b6f:	c7 04 24 02 00 00 00 	movl   $0x2,(%esp)
 8048b76:	e8 85 f9 ff ff       	call   8048500 <exit@plt>
 8048b7b:	90                   	nop
 8048b7c:	8d 74 26 00          	lea    0x0(%esi,%eiz,1),%esi
 8048b80:	83 ec 1c             	sub    $0x1c,%esp
 8048b83:	c7 04 24 0f 8f 04 08 	movl   $0x8048f0f,(%esp)
 8048b8a:	e8 11 fb ff ff       	call   80486a0 <__sprintf_chk@plt+0x140>
 8048b8f:	c7 04 24 1f 8f 04 08 	movl   $0x8048f1f,(%esp)
 8048b96:	e8 05 fb ff ff       	call   80486a0 <__sprintf_chk@plt+0x140>
 8048b9b:	c7 04 24 30 8f 04 08 	movl   $0x8048f30,(%esp)
 8048ba2:	e8 f9 fa ff ff       	call   80486a0 <__sprintf_chk@plt+0x140>
 8048ba7:	c7 04 24 3f 8f 04 08 	movl   $0x8048f3f,(%esp)
 8048bae:	e8 ed fa ff ff       	call   80486a0 <__sprintf_chk@plt+0x140>
 8048bb3:	c7 04 24 4d 8f 04 08 	movl   $0x8048f4d,(%esp)
 8048bba:	e8 e1 fa ff ff       	call   80486a0 <__sprintf_chk@plt+0x140>
 8048bbf:	83 c4 1c             	add    $0x1c,%esp
 8048bc2:	c3                   	ret    
 8048bc3:	8d b6 00 00 00 00    	lea    0x0(%esi),%esi
 8048bc9:	8d bc 27 00 00 00 00 	lea    0x0(%edi,%eiz,1),%edi
 8048bd0:	83 ec 1c             	sub    $0x1c,%esp
 8048bd3:	c7 04 24 bc 90 04 08 	movl   $0x80490bc,(%esp)
 8048bda:	e8 c1 fa ff ff       	call   80486a0 <__sprintf_chk@plt+0x140>
 8048bdf:	c7 04 24 e8 90 04 08 	movl   $0x80490e8,(%esp)
 8048be6:	e8 b5 fa ff ff       	call   80486a0 <__sprintf_chk@plt+0x140>
 8048beb:	c7 04 24 bc 90 04 08 	movl   $0x80490bc,(%esp)
 8048bf2:	e8 a9 fa ff ff       	call   80486a0 <__sprintf_chk@plt+0x140>
 8048bf7:	83 c4 1c             	add    $0x1c,%esp
 8048bfa:	c3                   	ret    
 8048bfb:	90                   	nop
 8048bfc:	8d 74 26 00          	lea    0x0(%esi,%eiz,1),%esi
 8048c00:	53                   	push   %ebx
 8048c01:	83 ec 28             	sub    $0x28,%esp
 8048c04:	65 a1 14 00 00 00    	mov    %gs:0x14,%eax
 8048c0a:	89 44 24 1c          	mov    %eax,0x1c(%esp)
 8048c0e:	31 c0                	xor    %eax,%eax
 8048c10:	8d 54 24 13          	lea    0x13(%esp),%edx
 8048c14:	8d 44 24 1b          	lea    0x1b(%esp),%eax
 8048c18:	c6 00 00             	movb   $0x0,(%eax)
 8048c1b:	83 e8 01             	sub    $0x1,%eax
 8048c1e:	39 d0                	cmp    %edx,%eax
 8048c20:	75 f6                	jne    8048c18 <__sprintf_chk@plt+0x6b8>
 8048c22:	c7 05 b4 b2 04 08 00 	movl   $0x0,0x804b2b4
 8048c29:	00 00 00 
 8048c2c:	8d 5c 24 14          	lea    0x14(%esp),%ebx
 8048c30:	e8 9b ff ff ff       	call   8048bd0 <__sprintf_chk@plt+0x670>
 8048c35:	8d 76 00             	lea    0x0(%esi),%esi
 8048c38:	e8 43 ff ff ff       	call   8048b80 <__sprintf_chk@plt+0x620>
 8048c3d:	c7 44 24 08 0a 00 00 	movl   $0xa,0x8(%esp)
 8048c44:	00 
 8048c45:	c7 44 24 04 08 00 00 	movl   $0x8,0x4(%esp)
 8048c4c:	00 
 8048c4d:	c7 04 24 a8 b2 04 08 	movl   $0x804b2a8,(%esp)
 8048c54:	e8 97 fa ff ff       	call   80486f0 <__sprintf_chk@plt+0x190>
 8048c59:	85 c0                	test   %eax,%eax
 8048c5b:	0f 88 84 00 00 00    	js     8048ce5 <__sprintf_chk@plt+0x785>
 8048c61:	74 2d                	je     8048c90 <__sprintf_chk@plt+0x730>
 8048c63:	0f b6 05 a8 b2 04 08 	movzbl 0x804b2a8,%eax
 8048c6a:	3c 62                	cmp    $0x62,%al
 8048c6c:	74 42                	je     8048cb0 <__sprintf_chk@plt+0x750>
 8048c6e:	66 90                	xchg   %ax,%ax
 8048c70:	7e 2e                	jle    8048ca0 <__sprintf_chk@plt+0x740>
 8048c72:	3c 63                	cmp    $0x63,%al
 8048c74:	74 62                	je     8048cd8 <__sprintf_chk@plt+0x778>
 8048c76:	3c 64                	cmp    $0x64,%al
 8048c78:	75 46                	jne    8048cc0 <__sprintf_chk@plt+0x760>
 8048c7a:	31 c0                	xor    %eax,%eax
 8048c7c:	8b 4c 24 1c          	mov    0x1c(%esp),%ecx
 8048c80:	65 33 0d 14 00 00 00 	xor    %gs:0x14,%ecx
 8048c87:	75 68                	jne    8048cf1 <__sprintf_chk@plt+0x791>
 8048c89:	83 c4 28             	add    $0x28,%esp
 8048c8c:	5b                   	pop    %ebx
 8048c8d:	c3                   	ret    
 8048c8e:	66 90                	xchg   %ax,%ax
 8048c90:	c7 04 24 24 8e 04 08 	movl   $0x8048e24,(%esp)
 8048c97:	e8 04 fa ff ff       	call   80486a0 <__sprintf_chk@plt+0x140>
 8048c9c:	eb 9a                	jmp    8048c38 <__sprintf_chk@plt+0x6d8>
 8048c9e:	66 90                	xchg   %ax,%ax
 8048ca0:	3c 61                	cmp    $0x61,%al
 8048ca2:	75 1c                	jne    8048cc0 <__sprintf_chk@plt+0x760>
 8048ca4:	89 1c 24             	mov    %ebx,(%esp)
 8048ca7:	e8 94 fb ff ff       	call   8048840 <__sprintf_chk@plt+0x2e0>
 8048cac:	eb 8a                	jmp    8048c38 <__sprintf_chk@plt+0x6d8>
 8048cae:	66 90                	xchg   %ax,%ax
 8048cb0:	89 1c 24             	mov    %ebx,(%esp)
 8048cb3:	e8 98 fc ff ff       	call   8048950 <__sprintf_chk@plt+0x3f0>
 8048cb8:	e9 7b ff ff ff       	jmp    8048c38 <__sprintf_chk@plt+0x6d8>
 8048cbd:	8d 76 00             	lea    0x0(%esi),%esi
 8048cc0:	c7 04 24 57 8f 04 08 	movl   $0x8048f57,(%esp)
 8048cc7:	e8 d4 f9 ff ff       	call   80486a0 <__sprintf_chk@plt+0x140>
 8048ccc:	e9 67 ff ff ff       	jmp    8048c38 <__sprintf_chk@plt+0x6d8>
 8048cd1:	8d b4 26 00 00 00 00 	lea    0x0(%esi,%eiz,1),%esi
 8048cd8:	89 1c 24             	mov    %ebx,(%esp)
 8048cdb:	e8 50 fd ff ff       	call   8048a30 <__sprintf_chk@plt+0x4d0>
 8048ce0:	e9 53 ff ff ff       	jmp    8048c38 <__sprintf_chk@plt+0x6d8>
 8048ce5:	c7 04 24 02 00 00 00 	movl   $0x2,(%esp)
 8048cec:	e8 0f f8 ff ff       	call   8048500 <exit@plt>
 8048cf1:	e8 da f7 ff ff       	call   80484d0 <__stack_chk_fail@plt>
 8048cf6:	66 90                	xchg   %ax,%ax
 8048cf8:	66 90                	xchg   %ax,%ax
 8048cfa:	66 90                	xchg   %ax,%ax
 8048cfc:	66 90                	xchg   %ax,%ax
 8048cfe:	66 90                	xchg   %ax,%ax
 8048d00:	55                   	push   %ebp
 8048d01:	57                   	push   %edi
 8048d02:	31 ff                	xor    %edi,%edi
 8048d04:	56                   	push   %esi
 8048d05:	53                   	push   %ebx
 8048d06:	e8 c5 f8 ff ff       	call   80485d0 <__sprintf_chk@plt+0x70>
 8048d0b:	81 c3 f5 22 00 00    	add    $0x22f5,%ebx
 8048d11:	83 ec 1c             	sub    $0x1c,%esp
 8048d14:	8b 6c 24 30          	mov    0x30(%esp),%ebp
 8048d18:	8d b3 0c ff ff ff    	lea    -0xf4(%ebx),%esi
 8048d1e:	e8 4d f7 ff ff       	call   8048470 <signal@plt-0x40>
 8048d23:	8d 83 08 ff ff ff    	lea    -0xf8(%ebx),%eax
 8048d29:	29 c6                	sub    %eax,%esi
 8048d2b:	c1 fe 02             	sar    $0x2,%esi
 8048d2e:	85 f6                	test   %esi,%esi
 8048d30:	74 27                	je     8048d59 <__sprintf_chk@plt+0x7f9>
 8048d32:	8d b6 00 00 00 00    	lea    0x0(%esi),%esi
 8048d38:	8b 44 24 38          	mov    0x38(%esp),%eax
 8048d3c:	89 2c 24             	mov    %ebp,(%esp)
 8048d3f:	89 44 24 08          	mov    %eax,0x8(%esp)
 8048d43:	8b 44 24 34          	mov    0x34(%esp),%eax
 8048d47:	89 44 24 04          	mov    %eax,0x4(%esp)
 8048d4b:	ff 94 bb 08 ff ff ff 	call   *-0xf8(%ebx,%edi,4)
 8048d52:	83 c7 01             	add    $0x1,%edi
 8048d55:	39 f7                	cmp    %esi,%edi
 8048d57:	75 df                	jne    8048d38 <__sprintf_chk@plt+0x7d8>
 8048d59:	83 c4 1c             	add    $0x1c,%esp
 8048d5c:	5b                   	pop    %ebx
 8048d5d:	5e                   	pop    %esi
 8048d5e:	5f                   	pop    %edi
 8048d5f:	5d                   	pop    %ebp
 8048d60:	c3                   	ret    
 8048d61:	eb 0d                	jmp    8048d70 <__sprintf_chk@plt+0x810>
 8048d63:	90                   	nop
 8048d64:	90                   	nop
 8048d65:	90                   	nop
 8048d66:	90                   	nop
 8048d67:	90                   	nop
 8048d68:	90                   	nop
 8048d69:	90                   	nop
 8048d6a:	90                   	nop
 8048d6b:	90                   	nop
 8048d6c:	90                   	nop
 8048d6d:	90                   	nop
 8048d6e:	90                   	nop
 8048d6f:	90                   	nop
 8048d70:	f3 c3                	repz ret 

Disassembly of section .fini:

08048d74 <.fini>:
 8048d74:	53                   	push   %ebx
 8048d75:	83 ec 08             	sub    $0x8,%esp
 8048d78:	e8 53 f8 ff ff       	call   80485d0 <__sprintf_chk@plt+0x70>
 8048d7d:	81 c3 83 22 00 00    	add    $0x2283,%ebx
 8048d83:	83 c4 08             	add    $0x8,%esp
 8048d86:	5b                   	pop    %ebx
 8048d87:	c3                   	ret    
