
unexploitable:     file format elf64-x86-64


Disassembly of section .init:

0000000000400400 <_init>:
  400400:	48 83 ec 08          	sub    $0x8,%rsp
  400404:	e8 83 00 00 00       	callq  40048c <call_gmon_start>
  400409:	e8 12 01 00 00       	callq  400520 <frame_dummy>
  40040e:	e8 1d 02 00 00       	callq  400630 <__do_global_ctors_aux>
  400413:	48 83 c4 08          	add    $0x8,%rsp
  400417:	c3                   	retq   

Disassembly of section .plt:

0000000000400420 <puts@plt-0x10>:
  400420:	ff 35 ca 0b 20 00    	pushq  0x200bca(%rip)        # 600ff0 <_GLOBAL_OFFSET_TABLE_+0x8>
  400426:	ff 25 cc 0b 20 00    	jmpq   *0x200bcc(%rip)        # 600ff8 <_GLOBAL_OFFSET_TABLE_+0x10>
  40042c:	0f 1f 40 00          	nopl   0x0(%rax)

0000000000400430 <puts@plt>:
  400430:	ff 25 ca 0b 20 00    	jmpq   *0x200bca(%rip)        # 601000 <_GLOBAL_OFFSET_TABLE_+0x18>
  400436:	68 00 00 00 00       	pushq  $0x0
  40043b:	e9 e0 ff ff ff       	jmpq   400420 <_init+0x20>

0000000000400440 <read@plt>:
  400440:	ff 25 c2 0b 20 00    	jmpq   *0x200bc2(%rip)        # 601008 <_GLOBAL_OFFSET_TABLE_+0x20>
  400446:	68 01 00 00 00       	pushq  $0x1
  40044b:	e9 d0 ff ff ff       	jmpq   400420 <_init+0x20>

0000000000400450 <__libc_start_main@plt>:
  400450:	ff 25 ba 0b 20 00    	jmpq   *0x200bba(%rip)        # 601010 <_GLOBAL_OFFSET_TABLE_+0x28>
  400456:	68 02 00 00 00       	pushq  $0x2
  40045b:	e9 c0 ff ff ff       	jmpq   400420 <_init+0x20>

Disassembly of section .text:

0000000000400460 <_start>:
  400460:	31 ed                	xor    %ebp,%ebp
  400462:	49 89 d1             	mov    %rdx,%r9
  400465:	5e                   	pop    %rsi
  400466:	48 89 e2             	mov    %rsp,%rdx
  400469:	48 83 e4 f0          	and    $0xfffffffffffffff0,%rsp
  40046d:	50                   	push   %rax
  40046e:	54                   	push   %rsp
  40046f:	49 c7 c0 20 06 40 00 	mov    $0x400620,%r8
  400476:	48 c7 c1 90 05 40 00 	mov    $0x400590,%rcx
  40047d:	48 c7 c7 44 05 40 00 	mov    $0x400544,%rdi
  400484:	e8 c7 ff ff ff       	callq  400450 <__libc_start_main@plt>
  400489:	f4                   	hlt    
  40048a:	90                   	nop
  40048b:	90                   	nop

000000000040048c <call_gmon_start>:
  40048c:	48 83 ec 08          	sub    $0x8,%rsp
  400490:	48 8b 05 49 0b 20 00 	mov    0x200b49(%rip),%rax        # 600fe0 <_DYNAMIC+0x190>
  400497:	48 85 c0             	test   %rax,%rax
  40049a:	74 02                	je     40049e <call_gmon_start+0x12>
  40049c:	ff d0                	callq  *%rax
  40049e:	48 83 c4 08          	add    $0x8,%rsp
  4004a2:	c3                   	retq   
  4004a3:	90                   	nop
  4004a4:	90                   	nop
  4004a5:	90                   	nop
  4004a6:	90                   	nop
  4004a7:	90                   	nop
  4004a8:	90                   	nop
  4004a9:	90                   	nop
  4004aa:	90                   	nop
  4004ab:	90                   	nop
  4004ac:	90                   	nop
  4004ad:	90                   	nop
  4004ae:	90                   	nop
  4004af:	90                   	nop

00000000004004b0 <__do_global_dtors_aux>:
  4004b0:	55                   	push   %rbp
  4004b1:	48 89 e5             	mov    %rsp,%rbp
  4004b4:	53                   	push   %rbx
  4004b5:	48 83 ec 08          	sub    $0x8,%rsp
  4004b9:	80 3d 68 0b 20 00 00 	cmpb   $0x0,0x200b68(%rip)        # 601028 <__bss_start>
  4004c0:	75 4b                	jne    40050d <__do_global_dtors_aux+0x5d>
  4004c2:	bb 40 0e 60 00       	mov    $0x600e40,%ebx
  4004c7:	48 8b 05 62 0b 20 00 	mov    0x200b62(%rip),%rax        # 601030 <dtor_idx.6533>
  4004ce:	48 81 eb 38 0e 60 00 	sub    $0x600e38,%rbx
  4004d5:	48 c1 fb 03          	sar    $0x3,%rbx
  4004d9:	48 83 eb 01          	sub    $0x1,%rbx
  4004dd:	48 39 d8             	cmp    %rbx,%rax
  4004e0:	73 24                	jae    400506 <__do_global_dtors_aux+0x56>
  4004e2:	66 0f 1f 44 00 00    	nopw   0x0(%rax,%rax,1)
  4004e8:	48 83 c0 01          	add    $0x1,%rax
  4004ec:	48 89 05 3d 0b 20 00 	mov    %rax,0x200b3d(%rip)        # 601030 <dtor_idx.6533>
  4004f3:	ff 14 c5 38 0e 60 00 	callq  *0x600e38(,%rax,8)
  4004fa:	48 8b 05 2f 0b 20 00 	mov    0x200b2f(%rip),%rax        # 601030 <dtor_idx.6533>
  400501:	48 39 d8             	cmp    %rbx,%rax
  400504:	72 e2                	jb     4004e8 <__do_global_dtors_aux+0x38>
  400506:	c6 05 1b 0b 20 00 01 	movb   $0x1,0x200b1b(%rip)        # 601028 <__bss_start>
  40050d:	48 83 c4 08          	add    $0x8,%rsp
  400511:	5b                   	pop    %rbx
  400512:	5d                   	pop    %rbp
  400513:	c3                   	retq   
  400514:	66 66 66 2e 0f 1f 84 	data32 data32 nopw %cs:0x0(%rax,%rax,1)
  40051b:	00 00 00 00 00 

0000000000400520 <frame_dummy>:
  400520:	48 83 3d 20 09 20 00 	cmpq   $0x0,0x200920(%rip)        # 600e48 <__JCR_END__>
  400527:	00 
  400528:	55                   	push   %rbp
  400529:	48 89 e5             	mov    %rsp,%rbp
  40052c:	74 12                	je     400540 <frame_dummy+0x20>
  40052e:	b8 00 00 00 00       	mov    $0x0,%eax
  400533:	48 85 c0             	test   %rax,%rax
  400536:	74 08                	je     400540 <frame_dummy+0x20>
  400538:	5d                   	pop    %rbp
  400539:	bf 48 0e 60 00       	mov    $0x600e48,%edi
  40053e:	ff e0                	jmpq   *%rax
  400540:	5d                   	pop    %rbp
  400541:	c3                   	retq   
  400542:	90                   	nop
  400543:	90                   	nop

0000000000400544 <main>:
  400544:	55                   	push   %rbp
  400545:	48 89 e5             	mov    %rsp,%rbp
  400548:	48 83 ec 10          	sub    $0x10,%rsp
  40054c:	bf 80 06 40 00       	mov    $0x400680,%edi
  400551:	e8 da fe ff ff       	callq  400430 <puts@plt>
  400556:	bf a8 06 40 00       	mov    $0x4006a8,%edi
  40055b:	e8 d0 fe ff ff       	callq  400430 <puts@plt>
  400560:	bf d8 06 40 00       	mov    $0x4006d8,%edi
  400565:	e8 c6 fe ff ff       	callq  400430 <puts@plt>
  40056a:	48 8d 45 f0          	lea    -0x10(%rbp),%rax
  40056e:	ba 0f 05 00 00       	mov    $0x50f,%edx
  400573:	48 89 c6             	mov    %rax,%rsi
  400576:	bf 00 00 00 00       	mov    $0x0,%edi
  40057b:	b8 00 00 00 00       	mov    $0x0,%eax
  400580:	e8 bb fe ff ff       	callq  400440 <read@plt>
  400585:	c9                   	leaveq 
  400586:	c3                   	retq   
  400587:	90                   	nop
  400588:	90                   	nop
  400589:	90                   	nop
  40058a:	90                   	nop
  40058b:	90                   	nop
  40058c:	90                   	nop
  40058d:	90                   	nop
  40058e:	90                   	nop
  40058f:	90                   	nop

0000000000400590 <__libc_csu_init>:
  400590:	48 89 6c 24 d8       	mov    %rbp,-0x28(%rsp)
  400595:	4c 89 64 24 e0       	mov    %r12,-0x20(%rsp)
  40059a:	48 8d 2d 83 08 20 00 	lea    0x200883(%rip),%rbp        # 600e24 <__init_array_end>
  4005a1:	4c 8d 25 7c 08 20 00 	lea    0x20087c(%rip),%r12        # 600e24 <__init_array_end>
  4005a8:	4c 89 6c 24 e8       	mov    %r13,-0x18(%rsp)
  4005ad:	4c 89 74 24 f0       	mov    %r14,-0x10(%rsp)
  4005b2:	4c 89 7c 24 f8       	mov    %r15,-0x8(%rsp)
  4005b7:	48 89 5c 24 d0       	mov    %rbx,-0x30(%rsp)
  4005bc:	48 83 ec 38          	sub    $0x38,%rsp
  4005c0:	4c 29 e5             	sub    %r12,%rbp
  4005c3:	41 89 fd             	mov    %edi,%r13d
  4005c6:	49 89 f6             	mov    %rsi,%r14
  4005c9:	48 c1 fd 03          	sar    $0x3,%rbp
  4005cd:	49 89 d7             	mov    %rdx,%r15
  4005d0:	e8 2b fe ff ff       	callq  400400 <_init>
  4005d5:	48 85 ed             	test   %rbp,%rbp
  4005d8:	74 1c                	je     4005f6 <__libc_csu_init+0x66>
  4005da:	31 db                	xor    %ebx,%ebx
  4005dc:	0f 1f 40 00          	nopl   0x0(%rax)
  4005e0:	4c 89 fa             	mov    %r15,%rdx
  4005e3:	4c 89 f6             	mov    %r14,%rsi
  4005e6:	44 89 ef             	mov    %r13d,%edi
  4005e9:	41 ff 14 dc          	callq  *(%r12,%rbx,8)
  4005ed:	48 83 c3 01          	add    $0x1,%rbx
  4005f1:	48 39 eb             	cmp    %rbp,%rbx
  4005f4:	75 ea                	jne    4005e0 <__libc_csu_init+0x50>
  4005f6:	48 8b 5c 24 08       	mov    0x8(%rsp),%rbx
  4005fb:	48 8b 6c 24 10       	mov    0x10(%rsp),%rbp
  400600:	4c 8b 64 24 18       	mov    0x18(%rsp),%r12
  400605:	4c 8b 6c 24 20       	mov    0x20(%rsp),%r13
  40060a:	4c 8b 74 24 28       	mov    0x28(%rsp),%r14
  40060f:	4c 8b 7c 24 30       	mov    0x30(%rsp),%r15
  400614:	48 83 c4 38          	add    $0x38,%rsp
  400618:	c3                   	retq   
  400619:	0f 1f 80 00 00 00 00 	nopl   0x0(%rax)

0000000000400620 <__libc_csu_fini>:
  400620:	f3 c3                	repz retq 
  400622:	90                   	nop
  400623:	90                   	nop
  400624:	90                   	nop
  400625:	90                   	nop
  400626:	90                   	nop
  400627:	90                   	nop
  400628:	90                   	nop
  400629:	90                   	nop
  40062a:	90                   	nop
  40062b:	90                   	nop
  40062c:	90                   	nop
  40062d:	90                   	nop
  40062e:	90                   	nop
  40062f:	90                   	nop

0000000000400630 <__do_global_ctors_aux>:
  400630:	55                   	push   %rbp
  400631:	48 89 e5             	mov    %rsp,%rbp
  400634:	53                   	push   %rbx
  400635:	48 83 ec 08          	sub    $0x8,%rsp
  400639:	48 8b 05 e8 07 20 00 	mov    0x2007e8(%rip),%rax        # 600e28 <__CTOR_LIST__>
  400640:	48 83 f8 ff          	cmp    $0xffffffffffffffff,%rax
  400644:	74 19                	je     40065f <__do_global_ctors_aux+0x2f>
  400646:	bb 28 0e 60 00       	mov    $0x600e28,%ebx
  40064b:	0f 1f 44 00 00       	nopl   0x0(%rax,%rax,1)
  400650:	48 83 eb 08          	sub    $0x8,%rbx
  400654:	ff d0                	callq  *%rax
  400656:	48 8b 03             	mov    (%rbx),%rax
  400659:	48 83 f8 ff          	cmp    $0xffffffffffffffff,%rax
  40065d:	75 f1                	jne    400650 <__do_global_ctors_aux+0x20>
  40065f:	48 83 c4 08          	add    $0x8,%rsp
  400663:	5b                   	pop    %rbx
  400664:	5d                   	pop    %rbp
  400665:	c3                   	retq   
  400666:	90                   	nop
  400667:	90                   	nop

Disassembly of section .fini:

0000000000400668 <_fini>:
  400668:	48 83 ec 08          	sub    $0x8,%rsp
  40066c:	e8 3f fe ff ff       	callq  4004b0 <__do_global_dtors_aux>
  400671:	48 83 c4 08          	add    $0x8,%rsp
  400675:	c3                   	retq   
