
cpp:     file format elf32-i386


Disassembly of section .init:

080485d0 <_init>:
 80485d0:	53                   	push   %ebx
 80485d1:	83 ec 08             	sub    $0x8,%esp
 80485d4:	e8 27 01 00 00       	call   8048700 <__x86.get_pc_thunk.bx>
 80485d9:	81 c3 27 1a 00 00    	add    $0x1a27,%ebx
 80485df:	8b 83 fc ff ff ff    	mov    -0x4(%ebx),%eax
 80485e5:	85 c0                	test   %eax,%eax
 80485e7:	74 05                	je     80485ee <_init+0x1e>
 80485e9:	e8 32 00 00 00       	call   8048620 <__gmon_start__@plt>
 80485ee:	83 c4 08             	add    $0x8,%esp
 80485f1:	5b                   	pop    %ebx
 80485f2:	c3                   	ret    

Disassembly of section .plt:

08048600 <__cxa_atexit@plt-0x10>:
 8048600:	ff 35 04 a0 04 08    	pushl  0x804a004
 8048606:	ff 25 08 a0 04 08    	jmp    *0x804a008
 804860c:	00 00                	add    %al,(%eax)
	...

08048610 <__cxa_atexit@plt>:
 8048610:	ff 25 0c a0 04 08    	jmp    *0x804a00c
 8048616:	68 00 00 00 00       	push   $0x0
 804861b:	e9 e0 ff ff ff       	jmp    8048600 <_init+0x30>

08048620 <__gmon_start__@plt>:
 8048620:	ff 25 10 a0 04 08    	jmp    *0x804a010
 8048626:	68 08 00 00 00       	push   $0x8
 804862b:	e9 d0 ff ff ff       	jmp    8048600 <_init+0x30>

08048630 <_ZNSt8ios_base4InitC1Ev@plt>:
 8048630:	ff 25 14 a0 04 08    	jmp    *0x804a014
 8048636:	68 10 00 00 00       	push   $0x10
 804863b:	e9 c0 ff ff ff       	jmp    8048600 <_init+0x30>

08048640 <__libc_start_main@plt>:
 8048640:	ff 25 18 a0 04 08    	jmp    *0x804a018
 8048646:	68 18 00 00 00       	push   $0x18
 804864b:	e9 b0 ff ff ff       	jmp    8048600 <_init+0x30>

08048650 <_ZNSt8ios_base4InitD1Ev@plt>:
 8048650:	ff 25 1c a0 04 08    	jmp    *0x804a01c
 8048656:	68 20 00 00 00       	push   $0x20
 804865b:	e9 a0 ff ff ff       	jmp    8048600 <_init+0x30>

08048660 <_ZStlsISt11char_traitsIcEERSt13basic_ostreamIcT_ES5_PKc@plt>:
 8048660:	ff 25 20 a0 04 08    	jmp    *0x804a020
 8048666:	68 28 00 00 00       	push   $0x28
 804866b:	e9 90 ff ff ff       	jmp    8048600 <_init+0x30>

08048670 <strlen@plt>:
 8048670:	ff 25 24 a0 04 08    	jmp    *0x804a024
 8048676:	68 30 00 00 00       	push   $0x30
 804867b:	e9 80 ff ff ff       	jmp    8048600 <_init+0x30>

08048680 <atoi@plt>:
 8048680:	ff 25 28 a0 04 08    	jmp    *0x804a028
 8048686:	68 38 00 00 00       	push   $0x38
 804868b:	e9 70 ff ff ff       	jmp    8048600 <_init+0x30>

08048690 <_ZStrsIcSt11char_traitsIcEERSt13basic_istreamIT_T0_ES6_PS3_@plt>:
 8048690:	ff 25 2c a0 04 08    	jmp    *0x804a02c
 8048696:	68 40 00 00 00       	push   $0x40
 804869b:	e9 60 ff ff ff       	jmp    8048600 <_init+0x30>

080486a0 <_ZNSolsEPFRSoS_E@plt>:
 80486a0:	ff 25 30 a0 04 08    	jmp    *0x804a030
 80486a6:	68 48 00 00 00       	push   $0x48
 80486ab:	e9 50 ff ff ff       	jmp    8048600 <_init+0x30>

080486b0 <_ZSt4endlIcSt11char_traitsIcEERSt13basic_ostreamIT_T0_ES6_@plt>:
 80486b0:	ff 25 34 a0 04 08    	jmp    *0x804a034
 80486b6:	68 50 00 00 00       	push   $0x50
 80486bb:	e9 40 ff ff ff       	jmp    8048600 <_init+0x30>

080486c0 <exit@plt>:
 80486c0:	ff 25 38 a0 04 08    	jmp    *0x804a038
 80486c6:	68 58 00 00 00       	push   $0x58
 80486cb:	e9 30 ff ff ff       	jmp    8048600 <_init+0x30>

Disassembly of section .text:

080486d0 <_start>:
 80486d0:	31 ed                	xor    %ebp,%ebp
 80486d2:	5e                   	pop    %esi
 80486d3:	89 e1                	mov    %esp,%ecx
 80486d5:	83 e4 f0             	and    $0xfffffff0,%esp
 80486d8:	50                   	push   %eax
 80486d9:	54                   	push   %esp
 80486da:	52                   	push   %edx
 80486db:	68 90 8c 04 08       	push   $0x8048c90
 80486e0:	68 20 8c 04 08       	push   $0x8048c20
 80486e5:	51                   	push   %ecx
 80486e6:	56                   	push   %esi
 80486e7:	68 03 88 04 08       	push   $0x8048803
 80486ec:	e8 4f ff ff ff       	call   8048640 <__libc_start_main@plt>
 80486f1:	f4                   	hlt    
 80486f2:	66 90                	xchg   %ax,%ax
 80486f4:	66 90                	xchg   %ax,%ax
 80486f6:	66 90                	xchg   %ax,%ax
 80486f8:	66 90                	xchg   %ax,%ax
 80486fa:	66 90                	xchg   %ax,%ax
 80486fc:	66 90                	xchg   %ax,%ax
 80486fe:	66 90                	xchg   %ax,%ax

08048700 <__x86.get_pc_thunk.bx>:
 8048700:	8b 1c 24             	mov    (%esp),%ebx
 8048703:	c3                   	ret    
 8048704:	66 90                	xchg   %ax,%ax
 8048706:	66 90                	xchg   %ax,%ax
 8048708:	66 90                	xchg   %ax,%ax
 804870a:	66 90                	xchg   %ax,%ax
 804870c:	66 90                	xchg   %ax,%ax
 804870e:	66 90                	xchg   %ax,%ax

08048710 <deregister_tm_clones>:
 8048710:	b8 47 a0 04 08       	mov    $0x804a047,%eax
 8048715:	2d 44 a0 04 08       	sub    $0x804a044,%eax
 804871a:	83 f8 06             	cmp    $0x6,%eax
 804871d:	77 01                	ja     8048720 <deregister_tm_clones+0x10>
 804871f:	c3                   	ret    
 8048720:	b8 00 00 00 00       	mov    $0x0,%eax
 8048725:	85 c0                	test   %eax,%eax
 8048727:	74 f6                	je     804871f <deregister_tm_clones+0xf>
 8048729:	55                   	push   %ebp
 804872a:	89 e5                	mov    %esp,%ebp
 804872c:	83 ec 18             	sub    $0x18,%esp
 804872f:	c7 04 24 44 a0 04 08 	movl   $0x804a044,(%esp)
 8048736:	ff d0                	call   *%eax
 8048738:	c9                   	leave  
 8048739:	c3                   	ret    
 804873a:	8d b6 00 00 00 00    	lea    0x0(%esi),%esi

08048740 <register_tm_clones>:
 8048740:	b8 44 a0 04 08       	mov    $0x804a044,%eax
 8048745:	2d 44 a0 04 08       	sub    $0x804a044,%eax
 804874a:	c1 f8 02             	sar    $0x2,%eax
 804874d:	89 c2                	mov    %eax,%edx
 804874f:	c1 ea 1f             	shr    $0x1f,%edx
 8048752:	01 d0                	add    %edx,%eax
 8048754:	d1 f8                	sar    %eax
 8048756:	75 01                	jne    8048759 <register_tm_clones+0x19>
 8048758:	c3                   	ret    
 8048759:	ba 00 00 00 00       	mov    $0x0,%edx
 804875e:	85 d2                	test   %edx,%edx
 8048760:	74 f6                	je     8048758 <register_tm_clones+0x18>
 8048762:	55                   	push   %ebp
 8048763:	89 e5                	mov    %esp,%ebp
 8048765:	83 ec 18             	sub    $0x18,%esp
 8048768:	89 44 24 04          	mov    %eax,0x4(%esp)
 804876c:	c7 04 24 44 a0 04 08 	movl   $0x804a044,(%esp)
 8048773:	ff d2                	call   *%edx
 8048775:	c9                   	leave  
 8048776:	c3                   	ret    
 8048777:	89 f6                	mov    %esi,%esi
 8048779:	8d bc 27 00 00 00 00 	lea    0x0(%edi,%eiz,1),%edi

08048780 <__do_global_dtors_aux>:
 8048780:	80 3d 8c a1 04 08 00 	cmpb   $0x0,0x804a18c
 8048787:	75 13                	jne    804879c <__do_global_dtors_aux+0x1c>
 8048789:	55                   	push   %ebp
 804878a:	89 e5                	mov    %esp,%ebp
 804878c:	83 ec 08             	sub    $0x8,%esp
 804878f:	e8 7c ff ff ff       	call   8048710 <deregister_tm_clones>
 8048794:	c6 05 8c a1 04 08 01 	movb   $0x1,0x804a18c
 804879b:	c9                   	leave  
 804879c:	f3 c3                	repz ret 
 804879e:	66 90                	xchg   %ax,%ax

080487a0 <frame_dummy>:
 80487a0:	a1 08 9f 04 08       	mov    0x8049f08,%eax
 80487a5:	85 c0                	test   %eax,%eax
 80487a7:	74 1f                	je     80487c8 <frame_dummy+0x28>
 80487a9:	b8 00 00 00 00       	mov    $0x0,%eax
 80487ae:	85 c0                	test   %eax,%eax
 80487b0:	74 16                	je     80487c8 <frame_dummy+0x28>
 80487b2:	55                   	push   %ebp
 80487b3:	89 e5                	mov    %esp,%ebp
 80487b5:	83 ec 18             	sub    $0x18,%esp
 80487b8:	c7 04 24 08 9f 04 08 	movl   $0x8049f08,(%esp)
 80487bf:	ff d0                	call   *%eax
 80487c1:	c9                   	leave  
 80487c2:	e9 79 ff ff ff       	jmp    8048740 <register_tm_clones>
 80487c7:	90                   	nop
 80487c8:	e9 73 ff ff ff       	jmp    8048740 <register_tm_clones>

080487cd <_Z4stopv>:
 80487cd:	55                   	push   %ebp
 80487ce:	89 e5                	mov    %esp,%ebp
 80487d0:	83 ec 18             	sub    $0x18,%esp
 80487d3:	c7 44 24 04 b0 8c 04 	movl   $0x8048cb0,0x4(%esp)
 80487da:	08 
 80487db:	c7 04 24 00 a1 04 08 	movl   $0x804a100,(%esp)
 80487e2:	e8 79 fe ff ff       	call   8048660 <_ZStlsISt11char_traitsIcEERSt13basic_ostreamIcT_ES5_PKc@plt>
 80487e7:	c7 44 24 04 b0 86 04 	movl   $0x80486b0,0x4(%esp)
 80487ee:	08 
 80487ef:	89 04 24             	mov    %eax,(%esp)
 80487f2:	e8 a9 fe ff ff       	call   80486a0 <_ZNSolsEPFRSoS_E@plt>
 80487f7:	c7 04 24 00 00 00 00 	movl   $0x0,(%esp)
 80487fe:	e8 bd fe ff ff       	call   80486c0 <exit@plt>

08048803 <main>:
 8048803:	55                   	push   %ebp
 8048804:	89 e5                	mov    %esp,%ebp
 8048806:	83 e4 f0             	and    $0xfffffff0,%esp
 8048809:	83 ec 30             	sub    $0x30,%esp
 804880c:	c7 05 a4 a1 04 08 16 	movl   $0x16,0x804a1a4
 8048813:	00 00 00 
 8048816:	c7 44 24 27 00 00 00 	movl   $0x0,0x27(%esp)
 804881d:	00 
 804881e:	c6 44 24 2b 00       	movb   $0x0,0x2b(%esp)
 8048823:	c7 44 24 13 00 00 00 	movl   $0x0,0x13(%esp)
 804882a:	00 
 804882b:	c7 44 24 17 00 00 00 	movl   $0x0,0x17(%esp)
 8048832:	00 
 8048833:	c7 44 24 1b 00 00 00 	movl   $0x0,0x1b(%esp)
 804883a:	00 
 804883b:	c7 44 24 1f 00 00 00 	movl   $0x0,0x1f(%esp)
 8048842:	00 
 8048843:	c7 44 24 23 00 00 00 	movl   $0x0,0x23(%esp)
 804884a:	00 
 804884b:	c7 44 24 04 dc 8c 04 	movl   $0x8048cdc,0x4(%esp)
 8048852:	08 
 8048853:	c7 04 24 00 a1 04 08 	movl   $0x804a100,(%esp)
 804885a:	e8 01 fe ff ff       	call   8048660 <_ZStlsISt11char_traitsIcEERSt13basic_ostreamIcT_ES5_PKc@plt>
 804885f:	c7 44 24 04 b0 86 04 	movl   $0x80486b0,0x4(%esp)
 8048866:	08 
 8048867:	89 04 24             	mov    %eax,(%esp)
 804886a:	e8 31 fe ff ff       	call   80486a0 <_ZNSolsEPFRSoS_E@plt>
 804886f:	c7 44 24 04 14 8d 04 	movl   $0x8048d14,0x4(%esp)
 8048876:	08 
 8048877:	c7 04 24 00 a1 04 08 	movl   $0x804a100,(%esp)
 804887e:	e8 dd fd ff ff       	call   8048660 <_ZStlsISt11char_traitsIcEERSt13basic_ostreamIcT_ES5_PKc@plt>
 8048883:	c7 44 24 04 b0 86 04 	movl   $0x80486b0,0x4(%esp)
 804888a:	08 
 804888b:	89 04 24             	mov    %eax,(%esp)
 804888e:	e8 0d fe ff ff       	call   80486a0 <_ZNSolsEPFRSoS_E@plt>
 8048893:	a1 a4 a1 04 08       	mov    0x804a1a4,%eax
 8048898:	89 44 24 04          	mov    %eax,0x4(%esp)
 804889c:	c7 04 24 68 a0 04 08 	movl   $0x804a068,(%esp)
 80488a3:	e8 58 03 00 00       	call   8048c00 <_ZNSt8ios_base5widthEi>
 80488a8:	c7 44 24 04 90 a1 04 	movl   $0x804a190,0x4(%esp)
 80488af:	08 
 80488b0:	c7 04 24 60 a0 04 08 	movl   $0x804a060,(%esp)
 80488b7:	e8 d4 fd ff ff       	call   8048690 <_ZStrsIcSt11char_traitsIcEERSt13basic_istreamIT_T0_ES6_PS3_@plt>
 80488bc:	c7 04 24 90 a1 04 08 	movl   $0x804a190,(%esp)
 80488c3:	e8 a8 fd ff ff       	call   8048670 <strlen@plt>
 80488c8:	83 f8 14             	cmp    $0x14,%eax
 80488cb:	76 2e                	jbe    80488fb <main+0xf8>
 80488cd:	c7 44 24 04 2c 8d 04 	movl   $0x8048d2c,0x4(%esp)
 80488d4:	08 
 80488d5:	c7 04 24 00 a1 04 08 	movl   $0x804a100,(%esp)
 80488dc:	e8 7f fd ff ff       	call   8048660 <_ZStlsISt11char_traitsIcEERSt13basic_ostreamIcT_ES5_PKc@plt>
 80488e1:	c7 44 24 04 b0 86 04 	movl   $0x80486b0,0x4(%esp)
 80488e8:	08 
 80488e9:	89 04 24             	mov    %eax,(%esp)
 80488ec:	e8 af fd ff ff       	call   80486a0 <_ZNSolsEPFRSoS_E@plt>
 80488f1:	e8 d7 fe ff ff       	call   80487cd <_Z4stopv>
 80488f6:	e9 a2 02 00 00       	jmp    8048b9d <main+0x39a>
 80488fb:	c7 44 24 04 42 8d 04 	movl   $0x8048d42,0x4(%esp)
 8048902:	08 
 8048903:	c7 04 24 00 a1 04 08 	movl   $0x804a100,(%esp)
 804890a:	e8 51 fd ff ff       	call   8048660 <_ZStlsISt11char_traitsIcEERSt13basic_ostreamIcT_ES5_PKc@plt>
 804890f:	c7 44 24 04 90 a1 04 	movl   $0x804a190,0x4(%esp)
 8048916:	08 
 8048917:	89 04 24             	mov    %eax,(%esp)
 804891a:	e8 41 fd ff ff       	call   8048660 <_ZStlsISt11char_traitsIcEERSt13basic_ostreamIcT_ES5_PKc@plt>
 804891f:	c7 44 24 04 b0 86 04 	movl   $0x80486b0,0x4(%esp)
 8048926:	08 
 8048927:	89 04 24             	mov    %eax,(%esp)
 804892a:	e8 71 fd ff ff       	call   80486a0 <_ZNSolsEPFRSoS_E@plt>
 804892f:	c7 44 24 04 4c 8d 04 	movl   $0x8048d4c,0x4(%esp)
 8048936:	08 
 8048937:	c7 04 24 00 a1 04 08 	movl   $0x804a100,(%esp)
 804893e:	e8 1d fd ff ff       	call   8048660 <_ZStlsISt11char_traitsIcEERSt13basic_ostreamIcT_ES5_PKc@plt>
 8048943:	c7 44 24 04 b0 86 04 	movl   $0x80486b0,0x4(%esp)
 804894a:	08 
 804894b:	89 04 24             	mov    %eax,(%esp)
 804894e:	e8 4d fd ff ff       	call   80486a0 <_ZNSolsEPFRSoS_E@plt>
 8048953:	c7 44 24 04 88 8d 04 	movl   $0x8048d88,0x4(%esp)
 804895a:	08 
 804895b:	c7 04 24 00 a1 04 08 	movl   $0x804a100,(%esp)
 8048962:	e8 f9 fc ff ff       	call   8048660 <_ZStlsISt11char_traitsIcEERSt13basic_ostreamIcT_ES5_PKc@plt>
 8048967:	c7 44 24 04 b0 86 04 	movl   $0x80486b0,0x4(%esp)
 804896e:	08 
 804896f:	89 04 24             	mov    %eax,(%esp)
 8048972:	e8 29 fd ff ff       	call   80486a0 <_ZNSolsEPFRSoS_E@plt>
 8048977:	c7 44 24 04 8f 8d 04 	movl   $0x8048d8f,0x4(%esp)
 804897e:	08 
 804897f:	c7 04 24 00 a1 04 08 	movl   $0x804a100,(%esp)
 8048986:	e8 d5 fc ff ff       	call   8048660 <_ZStlsISt11char_traitsIcEERSt13basic_ostreamIcT_ES5_PKc@plt>
 804898b:	c7 44 24 04 b0 86 04 	movl   $0x80486b0,0x4(%esp)
 8048992:	08 
 8048993:	89 04 24             	mov    %eax,(%esp)
 8048996:	e8 05 fd ff ff       	call   80486a0 <_ZNSolsEPFRSoS_E@plt>
 804899b:	c7 44 24 04 96 8d 04 	movl   $0x8048d96,0x4(%esp)
 80489a2:	08 
 80489a3:	c7 04 24 00 a1 04 08 	movl   $0x804a100,(%esp)
 80489aa:	e8 b1 fc ff ff       	call   8048660 <_ZStlsISt11char_traitsIcEERSt13basic_ostreamIcT_ES5_PKc@plt>
 80489af:	c7 44 24 04 b0 86 04 	movl   $0x80486b0,0x4(%esp)
 80489b6:	08 
 80489b7:	89 04 24             	mov    %eax,(%esp)
 80489ba:	e8 e1 fc ff ff       	call   80486a0 <_ZNSolsEPFRSoS_E@plt>
 80489bf:	c7 44 24 04 9d 8d 04 	movl   $0x8048d9d,0x4(%esp)
 80489c6:	08 
 80489c7:	c7 04 24 00 a1 04 08 	movl   $0x804a100,(%esp)
 80489ce:	e8 8d fc ff ff       	call   8048660 <_ZStlsISt11char_traitsIcEERSt13basic_ostreamIcT_ES5_PKc@plt>
 80489d3:	c7 44 24 04 b0 86 04 	movl   $0x80486b0,0x4(%esp)
 80489da:	08 
 80489db:	89 04 24             	mov    %eax,(%esp)
 80489de:	e8 bd fc ff ff       	call   80486a0 <_ZNSolsEPFRSoS_E@plt>
 80489e3:	c7 44 24 04 a4 8d 04 	movl   $0x8048da4,0x4(%esp)
 80489ea:	08 
 80489eb:	c7 04 24 00 a1 04 08 	movl   $0x804a100,(%esp)
 80489f2:	e8 69 fc ff ff       	call   8048660 <_ZStlsISt11char_traitsIcEERSt13basic_ostreamIcT_ES5_PKc@plt>
 80489f7:	c7 44 24 04 b0 86 04 	movl   $0x80486b0,0x4(%esp)
 80489fe:	08 
 80489ff:	89 04 24             	mov    %eax,(%esp)
 8048a02:	e8 99 fc ff ff       	call   80486a0 <_ZNSolsEPFRSoS_E@plt>
 8048a07:	c7 44 24 04 ab 8d 04 	movl   $0x8048dab,0x4(%esp)
 8048a0e:	08 
 8048a0f:	c7 04 24 00 a1 04 08 	movl   $0x804a100,(%esp)
 8048a16:	e8 45 fc ff ff       	call   8048660 <_ZStlsISt11char_traitsIcEERSt13basic_ostreamIcT_ES5_PKc@plt>
 8048a1b:	c7 44 24 04 b0 86 04 	movl   $0x80486b0,0x4(%esp)
 8048a22:	08 
 8048a23:	89 04 24             	mov    %eax,(%esp)
 8048a26:	e8 75 fc ff ff       	call   80486a0 <_ZNSolsEPFRSoS_E@plt>
 8048a2b:	c7 44 24 04 b2 8d 04 	movl   $0x8048db2,0x4(%esp)
 8048a32:	08 
 8048a33:	c7 04 24 00 a1 04 08 	movl   $0x804a100,(%esp)
 8048a3a:	e8 21 fc ff ff       	call   8048660 <_ZStlsISt11char_traitsIcEERSt13basic_ostreamIcT_ES5_PKc@plt>
 8048a3f:	c7 44 24 04 b0 86 04 	movl   $0x80486b0,0x4(%esp)
 8048a46:	08 
 8048a47:	89 04 24             	mov    %eax,(%esp)
 8048a4a:	e8 51 fc ff ff       	call   80486a0 <_ZNSolsEPFRSoS_E@plt>
 8048a4f:	c7 44 24 04 b9 8d 04 	movl   $0x8048db9,0x4(%esp)
 8048a56:	08 
 8048a57:	c7 04 24 00 a1 04 08 	movl   $0x804a100,(%esp)
 8048a5e:	e8 fd fb ff ff       	call   8048660 <_ZStlsISt11char_traitsIcEERSt13basic_ostreamIcT_ES5_PKc@plt>
 8048a63:	c7 44 24 04 b0 86 04 	movl   $0x80486b0,0x4(%esp)
 8048a6a:	08 
 8048a6b:	89 04 24             	mov    %eax,(%esp)
 8048a6e:	e8 2d fc ff ff       	call   80486a0 <_ZNSolsEPFRSoS_E@plt>
 8048a73:	c7 44 24 04 c0 8d 04 	movl   $0x8048dc0,0x4(%esp)
 8048a7a:	08 
 8048a7b:	c7 04 24 00 a1 04 08 	movl   $0x804a100,(%esp)
 8048a82:	e8 d9 fb ff ff       	call   8048660 <_ZStlsISt11char_traitsIcEERSt13basic_ostreamIcT_ES5_PKc@plt>
 8048a87:	c7 44 24 04 b0 86 04 	movl   $0x80486b0,0x4(%esp)
 8048a8e:	08 
 8048a8f:	89 04 24             	mov    %eax,(%esp)
 8048a92:	e8 09 fc ff ff       	call   80486a0 <_ZNSolsEPFRSoS_E@plt>
 8048a97:	c7 44 24 04 c7 8d 04 	movl   $0x8048dc7,0x4(%esp)
 8048a9e:	08 
 8048a9f:	c7 04 24 00 a1 04 08 	movl   $0x804a100,(%esp)
 8048aa6:	e8 b5 fb ff ff       	call   8048660 <_ZStlsISt11char_traitsIcEERSt13basic_ostreamIcT_ES5_PKc@plt>
 8048aab:	c7 44 24 04 b0 86 04 	movl   $0x80486b0,0x4(%esp)
 8048ab2:	08 
 8048ab3:	89 04 24             	mov    %eax,(%esp)
 8048ab6:	e8 e5 fb ff ff       	call   80486a0 <_ZNSolsEPFRSoS_E@plt>
 8048abb:	c7 44 24 04 04 00 00 	movl   $0x4,0x4(%esp)
 8048ac2:	00 
 8048ac3:	c7 04 24 68 a0 04 08 	movl   $0x804a068,(%esp)
 8048aca:	e8 31 01 00 00       	call   8048c00 <_ZNSt8ios_base5widthEi>
 8048acf:	8d 44 24 27          	lea    0x27(%esp),%eax
 8048ad3:	89 44 24 04          	mov    %eax,0x4(%esp)
 8048ad7:	c7 04 24 60 a0 04 08 	movl   $0x804a060,(%esp)
 8048ade:	e8 ad fb ff ff       	call   8048690 <_ZStrsIcSt11char_traitsIcEERSt13basic_istreamIT_T0_ES6_PS3_@plt>
 8048ae3:	8d 44 24 27          	lea    0x27(%esp),%eax
 8048ae7:	89 04 24             	mov    %eax,(%esp)
 8048aea:	e8 91 fb ff ff       	call   8048680 <atoi@plt>
 8048aef:	89 44 24 2c          	mov    %eax,0x2c(%esp)
 8048af3:	83 7c 24 2c 00       	cmpl   $0x0,0x2c(%esp)
 8048af8:	7e 7a                	jle    8048b74 <main+0x371>
 8048afa:	83 7c 24 2c 0a       	cmpl   $0xa,0x2c(%esp)
 8048aff:	7f 73                	jg     8048b74 <main+0x371>
 8048b01:	c7 44 24 04 d0 8d 04 	movl   $0x8048dd0,0x4(%esp)
 8048b08:	08 
 8048b09:	c7 04 24 00 a1 04 08 	movl   $0x804a100,(%esp)
 8048b10:	e8 4b fb ff ff       	call   8048660 <_ZStlsISt11char_traitsIcEERSt13basic_ostreamIcT_ES5_PKc@plt>
 8048b15:	c7 44 24 04 b0 86 04 	movl   $0x80486b0,0x4(%esp)
 8048b1c:	08 
 8048b1d:	89 04 24             	mov    %eax,(%esp)
 8048b20:	e8 7b fb ff ff       	call   80486a0 <_ZNSolsEPFRSoS_E@plt>
 8048b25:	a1 a4 a1 04 08       	mov    0x804a1a4,%eax
 8048b2a:	89 44 24 04          	mov    %eax,0x4(%esp)
 8048b2e:	c7 04 24 68 a0 04 08 	movl   $0x804a068,(%esp)
 8048b35:	e8 c6 00 00 00       	call   8048c00 <_ZNSt8ios_base5widthEi>
 8048b3a:	8d 44 24 13          	lea    0x13(%esp),%eax
 8048b3e:	89 44 24 04          	mov    %eax,0x4(%esp)
 8048b42:	c7 04 24 60 a0 04 08 	movl   $0x804a060,(%esp)
 8048b49:	e8 42 fb ff ff       	call   8048690 <_ZStrsIcSt11char_traitsIcEERSt13basic_istreamIT_T0_ES6_PS3_@plt>
 8048b4e:	c7 44 24 04 f0 8d 04 	movl   $0x8048df0,0x4(%esp)
 8048b55:	08 
 8048b56:	c7 04 24 00 a1 04 08 	movl   $0x804a100,(%esp)
 8048b5d:	e8 fe fa ff ff       	call   8048660 <_ZStlsISt11char_traitsIcEERSt13basic_ostreamIcT_ES5_PKc@plt>
 8048b62:	c7 44 24 04 b0 86 04 	movl   $0x80486b0,0x4(%esp)
 8048b69:	08 
 8048b6a:	89 04 24             	mov    %eax,(%esp)
 8048b6d:	e8 2e fb ff ff       	call   80486a0 <_ZNSolsEPFRSoS_E@plt>
 8048b72:	eb 29                	jmp    8048b9d <main+0x39a>
 8048b74:	c7 44 24 04 20 8e 04 	movl   $0x8048e20,0x4(%esp)
 8048b7b:	08 
 8048b7c:	c7 04 24 00 a1 04 08 	movl   $0x804a100,(%esp)
 8048b83:	e8 d8 fa ff ff       	call   8048660 <_ZStlsISt11char_traitsIcEERSt13basic_ostreamIcT_ES5_PKc@plt>
 8048b88:	c7 44 24 04 b0 86 04 	movl   $0x80486b0,0x4(%esp)
 8048b8f:	08 
 8048b90:	89 04 24             	mov    %eax,(%esp)
 8048b93:	e8 08 fb ff ff       	call   80486a0 <_ZNSolsEPFRSoS_E@plt>
 8048b98:	e8 30 fc ff ff       	call   80487cd <_Z4stopv>
 8048b9d:	b8 00 00 00 00       	mov    $0x0,%eax
 8048ba2:	c9                   	leave  
 8048ba3:	c3                   	ret    

08048ba4 <_Z41__static_initialization_and_destruction_0ii>:
 8048ba4:	55                   	push   %ebp
 8048ba5:	89 e5                	mov    %esp,%ebp
 8048ba7:	83 ec 18             	sub    $0x18,%esp
 8048baa:	83 7d 08 01          	cmpl   $0x1,0x8(%ebp)
 8048bae:	75 31                	jne    8048be1 <_Z41__static_initialization_and_destruction_0ii+0x3d>
 8048bb0:	81 7d 0c ff ff 00 00 	cmpl   $0xffff,0xc(%ebp)
 8048bb7:	75 28                	jne    8048be1 <_Z41__static_initialization_and_destruction_0ii+0x3d>
 8048bb9:	c7 04 24 a8 a1 04 08 	movl   $0x804a1a8,(%esp)
 8048bc0:	e8 6b fa ff ff       	call   8048630 <_ZNSt8ios_base4InitC1Ev@plt>
 8048bc5:	c7 44 24 08 40 a0 04 	movl   $0x804a040,0x8(%esp)
 8048bcc:	08 
 8048bcd:	c7 44 24 04 a8 a1 04 	movl   $0x804a1a8,0x4(%esp)
 8048bd4:	08 
 8048bd5:	c7 04 24 50 86 04 08 	movl   $0x8048650,(%esp)
 8048bdc:	e8 2f fa ff ff       	call   8048610 <__cxa_atexit@plt>
 8048be1:	c9                   	leave  
 8048be2:	c3                   	ret    

08048be3 <_GLOBAL__sub_I_name>:
 8048be3:	55                   	push   %ebp
 8048be4:	89 e5                	mov    %esp,%ebp
 8048be6:	83 ec 18             	sub    $0x18,%esp
 8048be9:	c7 44 24 04 ff ff 00 	movl   $0xffff,0x4(%esp)
 8048bf0:	00 
 8048bf1:	c7 04 24 01 00 00 00 	movl   $0x1,(%esp)
 8048bf8:	e8 a7 ff ff ff       	call   8048ba4 <_Z41__static_initialization_and_destruction_0ii>
 8048bfd:	c9                   	leave  
 8048bfe:	c3                   	ret    
 8048bff:	90                   	nop

08048c00 <_ZNSt8ios_base5widthEi>:
 8048c00:	55                   	push   %ebp
 8048c01:	89 e5                	mov    %esp,%ebp
 8048c03:	83 ec 10             	sub    $0x10,%esp
 8048c06:	8b 45 08             	mov    0x8(%ebp),%eax
 8048c09:	8b 40 08             	mov    0x8(%eax),%eax
 8048c0c:	89 45 fc             	mov    %eax,-0x4(%ebp)
 8048c0f:	8b 45 08             	mov    0x8(%ebp),%eax
 8048c12:	8b 55 0c             	mov    0xc(%ebp),%edx
 8048c15:	89 50 08             	mov    %edx,0x8(%eax)
 8048c18:	8b 45 fc             	mov    -0x4(%ebp),%eax
 8048c1b:	c9                   	leave  
 8048c1c:	c3                   	ret    
 8048c1d:	66 90                	xchg   %ax,%ax
 8048c1f:	90                   	nop

08048c20 <__libc_csu_init>:
 8048c20:	55                   	push   %ebp
 8048c21:	57                   	push   %edi
 8048c22:	31 ff                	xor    %edi,%edi
 8048c24:	56                   	push   %esi
 8048c25:	53                   	push   %ebx
 8048c26:	e8 d5 fa ff ff       	call   8048700 <__x86.get_pc_thunk.bx>
 8048c2b:	81 c3 d5 13 00 00    	add    $0x13d5,%ebx
 8048c31:	83 ec 1c             	sub    $0x1c,%esp
 8048c34:	8b 6c 24 30          	mov    0x30(%esp),%ebp
 8048c38:	8d b3 04 ff ff ff    	lea    -0xfc(%ebx),%esi
 8048c3e:	e8 8d f9 ff ff       	call   80485d0 <_init>
 8048c43:	8d 83 fc fe ff ff    	lea    -0x104(%ebx),%eax
 8048c49:	29 c6                	sub    %eax,%esi
 8048c4b:	c1 fe 02             	sar    $0x2,%esi
 8048c4e:	85 f6                	test   %esi,%esi
 8048c50:	74 27                	je     8048c79 <__libc_csu_init+0x59>
 8048c52:	8d b6 00 00 00 00    	lea    0x0(%esi),%esi
 8048c58:	8b 44 24 38          	mov    0x38(%esp),%eax
 8048c5c:	89 2c 24             	mov    %ebp,(%esp)
 8048c5f:	89 44 24 08          	mov    %eax,0x8(%esp)
 8048c63:	8b 44 24 34          	mov    0x34(%esp),%eax
 8048c67:	89 44 24 04          	mov    %eax,0x4(%esp)
 8048c6b:	ff 94 bb fc fe ff ff 	call   *-0x104(%ebx,%edi,4)
 8048c72:	83 c7 01             	add    $0x1,%edi
 8048c75:	39 f7                	cmp    %esi,%edi
 8048c77:	75 df                	jne    8048c58 <__libc_csu_init+0x38>
 8048c79:	83 c4 1c             	add    $0x1c,%esp
 8048c7c:	5b                   	pop    %ebx
 8048c7d:	5e                   	pop    %esi
 8048c7e:	5f                   	pop    %edi
 8048c7f:	5d                   	pop    %ebp
 8048c80:	c3                   	ret    
 8048c81:	eb 0d                	jmp    8048c90 <__libc_csu_fini>
 8048c83:	90                   	nop
 8048c84:	90                   	nop
 8048c85:	90                   	nop
 8048c86:	90                   	nop
 8048c87:	90                   	nop
 8048c88:	90                   	nop
 8048c89:	90                   	nop
 8048c8a:	90                   	nop
 8048c8b:	90                   	nop
 8048c8c:	90                   	nop
 8048c8d:	90                   	nop
 8048c8e:	90                   	nop
 8048c8f:	90                   	nop

08048c90 <__libc_csu_fini>:
 8048c90:	f3 c3                	repz ret 

Disassembly of section .fini:

08048c94 <_fini>:
 8048c94:	53                   	push   %ebx
 8048c95:	83 ec 08             	sub    $0x8,%esp
 8048c98:	e8 63 fa ff ff       	call   8048700 <__x86.get_pc_thunk.bx>
 8048c9d:	81 c3 63 13 00 00    	add    $0x1363,%ebx
 8048ca3:	83 c4 08             	add    $0x8,%esp
 8048ca6:	5b                   	pop    %ebx
 8048ca7:	c3                   	ret    
