
joke:     file format elf32-i386


Disassembly of section .init:

080483f8 <_init>:
 80483f8:	53                   	push   ebx
 80483f9:	83 ec 08             	sub    esp,0x8
 80483fc:	e8 1f 01 00 00       	call   8048520 <__x86.get_pc_thunk.bx>
 8048401:	81 c3 ff 1b 00 00    	add    ebx,0x1bff
 8048407:	8b 83 fc ff ff ff    	mov    eax,DWORD PTR [ebx-0x4]
 804840d:	85 c0                	test   eax,eax
 804840f:	74 05                	je     8048416 <_init+0x1e>
 8048411:	e8 8a 00 00 00       	call   80484a0 <__gmon_start__@plt>
 8048416:	83 c4 08             	add    esp,0x8
 8048419:	5b                   	pop    ebx
 804841a:	c3                   	ret    

Disassembly of section .plt:

08048420 <read@plt-0x10>:
 8048420:	ff 35 04 a0 04 08    	push   DWORD PTR ds:0x804a004
 8048426:	ff 25 08 a0 04 08    	jmp    DWORD PTR ds:0x804a008
 804842c:	00 00                	add    BYTE PTR [eax],al
	...

08048430 <read@plt>:
 8048430:	ff 25 0c a0 04 08    	jmp    DWORD PTR ds:0x804a00c
 8048436:	68 00 00 00 00       	push   0x0
 804843b:	e9 e0 ff ff ff       	jmp    8048420 <_init+0x28>

08048440 <printf@plt>:
 8048440:	ff 25 10 a0 04 08    	jmp    DWORD PTR ds:0x804a010
 8048446:	68 08 00 00 00       	push   0x8
 804844b:	e9 d0 ff ff ff       	jmp    8048420 <_init+0x28>

08048450 <bzero@plt>:
 8048450:	ff 25 14 a0 04 08    	jmp    DWORD PTR ds:0x804a014
 8048456:	68 10 00 00 00       	push   0x10
 804845b:	e9 c0 ff ff ff       	jmp    8048420 <_init+0x28>

08048460 <sleep@plt>:
 8048460:	ff 25 18 a0 04 08    	jmp    DWORD PTR ds:0x804a018
 8048466:	68 18 00 00 00       	push   0x18
 804846b:	e9 b0 ff ff ff       	jmp    8048420 <_init+0x28>

08048470 <malloc@plt>:
 8048470:	ff 25 1c a0 04 08    	jmp    DWORD PTR ds:0x804a01c
 8048476:	68 20 00 00 00       	push   0x20
 804847b:	e9 a0 ff ff ff       	jmp    8048420 <_init+0x28>

08048480 <puts@plt>:
 8048480:	ff 25 20 a0 04 08    	jmp    DWORD PTR ds:0x804a020
 8048486:	68 28 00 00 00       	push   0x28
 804848b:	e9 90 ff ff ff       	jmp    8048420 <_init+0x28>

08048490 <system@plt>:
 8048490:	ff 25 24 a0 04 08    	jmp    DWORD PTR ds:0x804a024
 8048496:	68 30 00 00 00       	push   0x30
 804849b:	e9 80 ff ff ff       	jmp    8048420 <_init+0x28>

080484a0 <__gmon_start__@plt>:
 80484a0:	ff 25 28 a0 04 08    	jmp    DWORD PTR ds:0x804a028
 80484a6:	68 38 00 00 00       	push   0x38
 80484ab:	e9 70 ff ff ff       	jmp    8048420 <_init+0x28>

080484b0 <open@plt>:
 80484b0:	ff 25 2c a0 04 08    	jmp    DWORD PTR ds:0x804a02c
 80484b6:	68 40 00 00 00       	push   0x40
 80484bb:	e9 60 ff ff ff       	jmp    8048420 <_init+0x28>

080484c0 <__libc_start_main@plt>:
 80484c0:	ff 25 30 a0 04 08    	jmp    DWORD PTR ds:0x804a030
 80484c6:	68 48 00 00 00       	push   0x48
 80484cb:	e9 50 ff ff ff       	jmp    8048420 <_init+0x28>

080484d0 <setvbuf@plt>:
 80484d0:	ff 25 34 a0 04 08    	jmp    DWORD PTR ds:0x804a034
 80484d6:	68 50 00 00 00       	push   0x50
 80484db:	e9 40 ff ff ff       	jmp    8048420 <_init+0x28>

080484e0 <atoi@plt>:
 80484e0:	ff 25 38 a0 04 08    	jmp    DWORD PTR ds:0x804a038
 80484e6:	68 58 00 00 00       	push   0x58
 80484eb:	e9 30 ff ff ff       	jmp    8048420 <_init+0x28>

Disassembly of section .text:

080484f0 <_start>:
 80484f0:	31 ed                	xor    ebp,ebp
 80484f2:	5e                   	pop    esi
 80484f3:	89 e1                	mov    ecx,esp
 80484f5:	83 e4 f0             	and    esp,0xfffffff0
 80484f8:	50                   	push   eax
 80484f9:	54                   	push   esp
 80484fa:	52                   	push   edx
 80484fb:	68 d0 87 04 08       	push   0x80487d0
 8048500:	68 60 87 04 08       	push   0x8048760
 8048505:	51                   	push   ecx
 8048506:	56                   	push   esi
 8048507:	68 8e 86 04 08       	push   0x804868e
 804850c:	e8 af ff ff ff       	call   80484c0 <__libc_start_main@plt>
 8048511:	f4                   	hlt    
 8048512:	66 90                	xchg   ax,ax
 8048514:	66 90                	xchg   ax,ax
 8048516:	66 90                	xchg   ax,ax
 8048518:	66 90                	xchg   ax,ax
 804851a:	66 90                	xchg   ax,ax
 804851c:	66 90                	xchg   ax,ax
 804851e:	66 90                	xchg   ax,ax

08048520 <__x86.get_pc_thunk.bx>:
 8048520:	8b 1c 24             	mov    ebx,DWORD PTR [esp]
 8048523:	c3                   	ret    
 8048524:	66 90                	xchg   ax,ax
 8048526:	66 90                	xchg   ax,ax
 8048528:	66 90                	xchg   ax,ax
 804852a:	66 90                	xchg   ax,ax
 804852c:	66 90                	xchg   ax,ax
 804852e:	66 90                	xchg   ax,ax

08048530 <deregister_tm_clones>:
 8048530:	b8 47 a0 04 08       	mov    eax,0x804a047
 8048535:	2d 44 a0 04 08       	sub    eax,0x804a044
 804853a:	83 f8 06             	cmp    eax,0x6
 804853d:	77 01                	ja     8048540 <deregister_tm_clones+0x10>
 804853f:	c3                   	ret    
 8048540:	b8 00 00 00 00       	mov    eax,0x0
 8048545:	85 c0                	test   eax,eax
 8048547:	74 f6                	je     804853f <deregister_tm_clones+0xf>
 8048549:	55                   	push   ebp
 804854a:	89 e5                	mov    ebp,esp
 804854c:	83 ec 18             	sub    esp,0x18
 804854f:	c7 04 24 44 a0 04 08 	mov    DWORD PTR [esp],0x804a044
 8048556:	ff d0                	call   eax
 8048558:	c9                   	leave  
 8048559:	c3                   	ret    
 804855a:	8d b6 00 00 00 00    	lea    esi,[esi+0x0]

08048560 <register_tm_clones>:
 8048560:	b8 44 a0 04 08       	mov    eax,0x804a044
 8048565:	2d 44 a0 04 08       	sub    eax,0x804a044
 804856a:	c1 f8 02             	sar    eax,0x2
 804856d:	89 c2                	mov    edx,eax
 804856f:	c1 ea 1f             	shr    edx,0x1f
 8048572:	01 d0                	add    eax,edx
 8048574:	d1 f8                	sar    eax,1
 8048576:	75 01                	jne    8048579 <register_tm_clones+0x19>
 8048578:	c3                   	ret    
 8048579:	ba 00 00 00 00       	mov    edx,0x0
 804857e:	85 d2                	test   edx,edx
 8048580:	74 f6                	je     8048578 <register_tm_clones+0x18>
 8048582:	55                   	push   ebp
 8048583:	89 e5                	mov    ebp,esp
 8048585:	83 ec 18             	sub    esp,0x18
 8048588:	89 44 24 04          	mov    DWORD PTR [esp+0x4],eax
 804858c:	c7 04 24 44 a0 04 08 	mov    DWORD PTR [esp],0x804a044
 8048593:	ff d2                	call   edx
 8048595:	c9                   	leave  
 8048596:	c3                   	ret    
 8048597:	89 f6                	mov    esi,esi
 8048599:	8d bc 27 00 00 00 00 	lea    edi,[edi+eiz*1+0x0]

080485a0 <__do_global_dtors_aux>:
 80485a0:	80 3d 64 a0 04 08 00 	cmp    BYTE PTR ds:0x804a064,0x0
 80485a7:	75 13                	jne    80485bc <__do_global_dtors_aux+0x1c>
 80485a9:	55                   	push   ebp
 80485aa:	89 e5                	mov    ebp,esp
 80485ac:	83 ec 08             	sub    esp,0x8
 80485af:	e8 7c ff ff ff       	call   8048530 <deregister_tm_clones>
 80485b4:	c6 05 64 a0 04 08 01 	mov    BYTE PTR ds:0x804a064,0x1
 80485bb:	c9                   	leave  
 80485bc:	f3 c3                	repz ret 
 80485be:	66 90                	xchg   ax,ax

080485c0 <frame_dummy>:
 80485c0:	a1 10 9f 04 08       	mov    eax,ds:0x8049f10
 80485c5:	85 c0                	test   eax,eax
 80485c7:	74 1f                	je     80485e8 <frame_dummy+0x28>
 80485c9:	b8 00 00 00 00       	mov    eax,0x0
 80485ce:	85 c0                	test   eax,eax
 80485d0:	74 16                	je     80485e8 <frame_dummy+0x28>
 80485d2:	55                   	push   ebp
 80485d3:	89 e5                	mov    ebp,esp
 80485d5:	83 ec 18             	sub    esp,0x18
 80485d8:	c7 04 24 10 9f 04 08 	mov    DWORD PTR [esp],0x8049f10
 80485df:	ff d0                	call   eax
 80485e1:	c9                   	leave  
 80485e2:	e9 79 ff ff ff       	jmp    8048560 <register_tm_clones>
 80485e7:	90                   	nop
 80485e8:	e9 73 ff ff ff       	jmp    8048560 <register_tm_clones>

080485ed <auth>:
 80485ed:	55                   	push   ebp
 80485ee:	89 e5                	mov    ebp,esp
 80485f0:	83 ec 28             	sub    esp,0x28
 80485f3:	c7 04 24 04 00 00 00 	mov    DWORD PTR [esp],0x4
 80485fa:	e8 71 fe ff ff       	call   8048470 <malloc@plt>
 80485ff:	89 45 f4             	mov    DWORD PTR [ebp-0xc],eax
 8048602:	c7 04 24 f0 87 04 08 	mov    DWORD PTR [esp],0x80487f0
 8048609:	e8 32 fe ff ff       	call   8048440 <printf@plt>
 804860e:	c7 44 24 08 1c 00 00 	mov    DWORD PTR [esp+0x8],0x1c
 8048615:	00 
 8048616:	8b 45 08             	mov    eax,DWORD PTR [ebp+0x8]
 8048619:	89 44 24 04          	mov    DWORD PTR [esp+0x4],eax
 804861d:	c7 04 24 00 00 00 00 	mov    DWORD PTR [esp],0x0
 8048624:	e8 07 fe ff ff       	call   8048430 <read@plt>
 8048629:	c7 04 24 04 88 04 08 	mov    DWORD PTR [esp],0x8048804
 8048630:	e8 4b fe ff ff       	call   8048480 <puts@plt>
 8048635:	c7 04 24 03 00 00 00 	mov    DWORD PTR [esp],0x3
 804863c:	e8 1f fe ff ff       	call   8048460 <sleep@plt>
 8048641:	c7 44 24 08 00 00 00 	mov    DWORD PTR [esp+0x8],0x0
 8048648:	00 
 8048649:	c7 44 24 04 00 00 00 	mov    DWORD PTR [esp+0x4],0x0
 8048650:	00 
 8048651:	c7 04 24 3a 88 04 08 	mov    DWORD PTR [esp],0x804883a
 8048658:	e8 53 fe ff ff       	call   80484b0 <open@plt>
 804865d:	c7 44 24 08 04 00 00 	mov    DWORD PTR [esp+0x8],0x4
 8048664:	00 
 8048665:	8b 55 f4             	mov    edx,DWORD PTR [ebp-0xc]
 8048668:	89 54 24 04          	mov    DWORD PTR [esp+0x4],edx
 804866c:	89 04 24             	mov    DWORD PTR [esp],eax
 804866f:	e8 bc fd ff ff       	call   8048430 <read@plt>
 8048674:	8b 45 08             	mov    eax,DWORD PTR [ebp+0x8]
 8048677:	89 04 24             	mov    DWORD PTR [esp],eax
 804867a:	e8 61 fe ff ff       	call   80484e0 <atoi@plt>
 804867f:	8b 55 f4             	mov    edx,DWORD PTR [ebp-0xc]
 8048682:	8b 12                	mov    edx,DWORD PTR [edx]
 8048684:	39 d0                	cmp    eax,edx
 8048686:	0f 94 c0             	sete   al
 8048689:	0f b6 c0             	movzx  eax,al
 804868c:	c9                   	leave  
 804868d:	c3                   	ret    

0804868e <main>:
 804868e:	55                   	push   ebp
 804868f:	89 e5                	mov    ebp,esp
 8048691:	83 e4 f0             	and    esp,0xfffffff0
 8048694:	83 ec 30             	sub    esp,0x30
 8048697:	a1 60 a0 04 08       	mov    eax,ds:0x804a060
 804869c:	c7 44 24 0c 00 00 00 	mov    DWORD PTR [esp+0xc],0x0
 80486a3:	00 
 80486a4:	c7 44 24 08 02 00 00 	mov    DWORD PTR [esp+0x8],0x2
 80486ab:	00 
 80486ac:	c7 44 24 04 00 00 00 	mov    DWORD PTR [esp+0x4],0x0
 80486b3:	00 
 80486b4:	89 04 24             	mov    DWORD PTR [esp],eax
 80486b7:	e8 14 fe ff ff       	call   80484d0 <setvbuf@plt>
 80486bc:	c7 44 24 04 0a 00 00 	mov    DWORD PTR [esp+0x4],0xa
 80486c3:	00 
 80486c4:	8d 44 24 14          	lea    eax,[esp+0x14]
 80486c8:	89 04 24             	mov    DWORD PTR [esp],eax
 80486cb:	e8 80 fd ff ff       	call   8048450 <bzero@plt>
 80486d0:	c7 04 24 47 88 04 08 	mov    DWORD PTR [esp],0x8048847
 80486d7:	e8 64 fd ff ff       	call   8048440 <printf@plt>
 80486dc:	c7 44 24 08 0a 00 00 	mov    DWORD PTR [esp+0x8],0xa
 80486e3:	00 
 80486e4:	8d 44 24 14          	lea    eax,[esp+0x14]
 80486e8:	89 44 24 04          	mov    DWORD PTR [esp+0x4],eax
 80486ec:	c7 04 24 00 00 00 00 	mov    DWORD PTR [esp],0x0
 80486f3:	e8 38 fd ff ff       	call   8048430 <read@plt>
 80486f8:	8d 44 24 14          	lea    eax,[esp+0x14]
 80486fc:	89 44 24 04          	mov    DWORD PTR [esp+0x4],eax
 8048700:	c7 04 24 56 88 04 08 	mov    DWORD PTR [esp],0x8048856
 8048707:	e8 34 fd ff ff       	call   8048440 <printf@plt>
 804870c:	8d 44 24 24          	lea    eax,[esp+0x24]
 8048710:	89 04 24             	mov    DWORD PTR [esp],eax
 8048713:	e8 d5 fe ff ff       	call   80485ed <auth>
 8048718:	85 c0                	test   eax,eax
 804871a:	74 26                	je     8048742 <main+0xb4>
 804871c:	c7 04 24 64 88 04 08 	mov    DWORD PTR [esp],0x8048864
 8048723:	e8 58 fd ff ff       	call   8048480 <puts@plt>
 8048728:	c7 04 24 88 88 04 08 	mov    DWORD PTR [esp],0x8048888
 804872f:	e8 4c fd ff ff       	call   8048480 <puts@plt>
 8048734:	c7 04 24 af 88 04 08 	mov    DWORD PTR [esp],0x80488af
 804873b:	e8 50 fd ff ff       	call   8048490 <system@plt>
 8048740:	eb 0c                	jmp    804874e <main+0xc0>
 8048742:	c7 04 24 c4 88 04 08 	mov    DWORD PTR [esp],0x80488c4
 8048749:	e8 32 fd ff ff       	call   8048480 <puts@plt>
 804874e:	b8 00 00 00 00       	mov    eax,0x0
 8048753:	c9                   	leave  
 8048754:	c3                   	ret    
 8048755:	66 90                	xchg   ax,ax
 8048757:	66 90                	xchg   ax,ax
 8048759:	66 90                	xchg   ax,ax
 804875b:	66 90                	xchg   ax,ax
 804875d:	66 90                	xchg   ax,ax
 804875f:	90                   	nop

08048760 <__libc_csu_init>:
 8048760:	55                   	push   ebp
 8048761:	57                   	push   edi
 8048762:	31 ff                	xor    edi,edi
 8048764:	56                   	push   esi
 8048765:	53                   	push   ebx
 8048766:	e8 b5 fd ff ff       	call   8048520 <__x86.get_pc_thunk.bx>
 804876b:	81 c3 95 18 00 00    	add    ebx,0x1895
 8048771:	83 ec 1c             	sub    esp,0x1c
 8048774:	8b 6c 24 30          	mov    ebp,DWORD PTR [esp+0x30]
 8048778:	8d b3 0c ff ff ff    	lea    esi,[ebx-0xf4]
 804877e:	e8 75 fc ff ff       	call   80483f8 <_init>
 8048783:	8d 83 08 ff ff ff    	lea    eax,[ebx-0xf8]
 8048789:	29 c6                	sub    esi,eax
 804878b:	c1 fe 02             	sar    esi,0x2
 804878e:	85 f6                	test   esi,esi
 8048790:	74 27                	je     80487b9 <__libc_csu_init+0x59>
 8048792:	8d b6 00 00 00 00    	lea    esi,[esi+0x0]
 8048798:	8b 44 24 38          	mov    eax,DWORD PTR [esp+0x38]
 804879c:	89 2c 24             	mov    DWORD PTR [esp],ebp
 804879f:	89 44 24 08          	mov    DWORD PTR [esp+0x8],eax
 80487a3:	8b 44 24 34          	mov    eax,DWORD PTR [esp+0x34]
 80487a7:	89 44 24 04          	mov    DWORD PTR [esp+0x4],eax
 80487ab:	ff 94 bb 08 ff ff ff 	call   DWORD PTR [ebx+edi*4-0xf8]
 80487b2:	83 c7 01             	add    edi,0x1
 80487b5:	39 f7                	cmp    edi,esi
 80487b7:	75 df                	jne    8048798 <__libc_csu_init+0x38>
 80487b9:	83 c4 1c             	add    esp,0x1c
 80487bc:	5b                   	pop    ebx
 80487bd:	5e                   	pop    esi
 80487be:	5f                   	pop    edi
 80487bf:	5d                   	pop    ebp
 80487c0:	c3                   	ret    
 80487c1:	eb 0d                	jmp    80487d0 <__libc_csu_fini>
 80487c3:	90                   	nop
 80487c4:	90                   	nop
 80487c5:	90                   	nop
 80487c6:	90                   	nop
 80487c7:	90                   	nop
 80487c8:	90                   	nop
 80487c9:	90                   	nop
 80487ca:	90                   	nop
 80487cb:	90                   	nop
 80487cc:	90                   	nop
 80487cd:	90                   	nop
 80487ce:	90                   	nop
 80487cf:	90                   	nop

080487d0 <__libc_csu_fini>:
 80487d0:	f3 c3                	repz ret 

Disassembly of section .fini:

080487d4 <_fini>:
 80487d4:	53                   	push   ebx
 80487d5:	83 ec 08             	sub    esp,0x8
 80487d8:	e8 43 fd ff ff       	call   8048520 <__x86.get_pc_thunk.bx>
 80487dd:	81 c3 23 18 00 00    	add    ebx,0x1823
 80487e3:	83 c4 08             	add    esp,0x8
 80487e6:	5b                   	pop    ebx
 80487e7:	c3                   	ret    
